
kernel.raw:     file format elf32-tradlittlemips


Disassembly of section .kernel:

80000000 <exception_tlb_refill>:
80000000:	0800062d 	j	800018b4 <handle_tlb_refill_asm>
80000004:	00000000 	nop
	...

80000100 <exception_cache_error>:
80000100:	00000037 	0x37
80000104:	00000029 	0x29
	...

80000180 <exception_general>:
80000180:	080005bc 	j	800016f0 <handle_exception_general_asm>
80000184:	00000000 	nop
	...

80000400 <start>:
80000400:	3c1d8000 	lui	sp,0x8000
80000404:	37bd0400 	ori	sp,sp,0x400
80000408:	3c1c8000 	lui	gp,0x8000
8000040c:	3c1bffbf 	lui	k1,0xffbf
80000410:	377bffff 	ori	k1,k1,0xffff
80000414:	401a6000 	mfc0	k0,c0_sr
80000418:	035bd024 	and	k0,k0,k1
8000041c:	409a6000 	mtc0	k0,c0_sr
80000420:	00000000 	nop
80000424:	0c000461 	jal	80001184 <kernel_main>
80000428:	00000000 	nop
8000042c:	00000028 	0x28
80000430:	0800010c 	j	80000430 <start+0x30>
80000434:	00000000 	nop
	...

80001000 <tlb_refill_stack_space>:
	...

80001010 <init_thread>:
80001010:	27bdffe0 	addiu	sp,sp,-32
80001014:	afbf001c 	sw	ra,28(sp)
80001018:	0c001097 	jal	8000425c <thread_get_current>
8000101c:	00000000 	nop
80001020:	3c048000 	lui	a0,0x8000
80001024:	00402825 	move	a1,v0
80001028:	0c0006ea 	jal	80001ba8 <printk>
8000102c:	24844e60 	addiu	a0,a0,20064
80001030:	3c070004 	lui	a3,0x4
80001034:	3c060002 	lui	a2,0x2
80001038:	3c05bfb0 	lui	a1,0xbfb0
8000103c:	0c000ec9 	jal	80003b24 <process_create>
80001040:	27a40014 	addiu	a0,sp,20
80001044:	50400015 	beqzl	v0,8000109c <init_thread+0x8c>
80001048:	8fa40014 	lw	a0,20(sp)
8000104c:	00402825 	move	a1,v0
80001050:	2c420008 	sltiu	v0,v0,8
80001054:	10400043 	beqz	v0,80001164 <init_thread+0x154>
80001058:	3c068000 	lui	a2,0x8000
8000105c:	3c038000 	lui	v1,0x8000
80001060:	00051080 	sll	v0,a1,0x2
80001064:	246350c0 	addiu	v1,v1,20672
80001068:	00431021 	addu	v0,v0,v1
8000106c:	8c460000 	lw	a2,0(v0)
80001070:	3c048000 	lui	a0,0x8000
80001074:	0c0006ea 	jal	80001ba8 <printk>
80001078:	24844e78 	addiu	a0,a0,20088
8000107c:	3c048000 	lui	a0,0x8000
80001080:	0c0008e8 	jal	800023a0 <puts>
80001084:	24844eb4 	addiu	a0,a0,20148
80001088:	3c048000 	lui	a0,0x8000
8000108c:	0c0008e8 	jal	800023a0 <puts>
80001090:	24844ecc 	addiu	a0,a0,20172
80001094:	00000028 	0x28
80001098:	8fa40014 	lw	a0,20(sp)
8000109c:	0c000f12 	jal	80003c48 <process_join>
800010a0:	27a50010 	addiu	a1,sp,16
800010a4:	00402825 	move	a1,v0
800010a8:	24020007 	li	v0,7
800010ac:	10a2002f 	beq	a1,v0,8000116c <init_thread+0x15c>
800010b0:	3c048000 	lui	a0,0x8000
800010b4:	14a0000c 	bnez	a1,800010e8 <init_thread+0xd8>
800010b8:	2ca20008 	sltiu	v0,a1,8
800010bc:	8fa20010 	lw	v0,16(sp)
800010c0:	5440001e 	bnezl	v0,8000113c <init_thread+0x12c>
800010c4:	3c048000 	lui	a0,0x8000
800010c8:	3c048000 	lui	a0,0x8000
800010cc:	0c0006ea 	jal	80001ba8 <printk>
800010d0:	24844f88 	addiu	a0,a0,20360
800010d4:	00000028 	0x28
800010d8:	8fbf001c 	lw	ra,28(sp)
800010dc:	00001025 	move	v0,zero
800010e0:	03e00008 	jr	ra
800010e4:	27bd0020 	addiu	sp,sp,32
800010e8:	10400024 	beqz	v0,8000117c <init_thread+0x16c>
800010ec:	3c068000 	lui	a2,0x8000
800010f0:	3c038000 	lui	v1,0x8000
800010f4:	00051080 	sll	v0,a1,0x2
800010f8:	246350c0 	addiu	v1,v1,20672
800010fc:	00431021 	addu	v0,v0,v1
80001100:	8c460000 	lw	a2,0(v0)
80001104:	3c048000 	lui	a0,0x8000
80001108:	0c0006ea 	jal	80001ba8 <printk>
8000110c:	24844f10 	addiu	a0,a0,20240
80001110:	3c048000 	lui	a0,0x8000
80001114:	0c0008e8 	jal	800023a0 <puts>
80001118:	24844f54 	addiu	a0,a0,20308
8000111c:	3c048000 	lui	a0,0x8000
80001120:	0c0008e8 	jal	800023a0 <puts>
80001124:	24844ecc 	addiu	a0,a0,20172
80001128:	00000028 	0x28
8000112c:	8fa20010 	lw	v0,16(sp)
80001130:	5040ffe6 	beqzl	v0,800010cc <init_thread+0xbc>
80001134:	3c048000 	lui	a0,0x8000
80001138:	3c048000 	lui	a0,0x8000
8000113c:	0c0006ea 	jal	80001ba8 <printk>
80001140:	24844f6c 	addiu	a0,a0,20332
80001144:	3c048000 	lui	a0,0x8000
80001148:	0c0006ea 	jal	80001ba8 <printk>
8000114c:	24844f88 	addiu	a0,a0,20360
80001150:	00000028 	0x28
80001154:	8fbf001c 	lw	ra,28(sp)
80001158:	00001025 	move	v0,zero
8000115c:	03e00008 	jr	ra
80001160:	27bd0020 	addiu	sp,sp,32
80001164:	1000ffc2 	b	80001070 <init_thread+0x60>
80001168:	24c64e50 	addiu	a2,a2,20048
8000116c:	0c0006ea 	jal	80001ba8 <printk>
80001170:	24844ee4 	addiu	a0,a0,20196
80001174:	1000ffd2 	b	800010c0 <init_thread+0xb0>
80001178:	8fa20010 	lw	v0,16(sp)
8000117c:	1000ffe1 	b	80001104 <init_thread+0xf4>
80001180:	24c64e50 	addiu	a2,a2,20048

80001184 <kernel_main>:
80001184:	27bdffd8 	addiu	sp,sp,-40
80001188:	afbf0024 	sw	ra,36(sp)
8000118c:	0c000a84 	jal	80002a10 <frame_init>
80001190:	00000000 	nop
80001194:	0c000c33 	jal	800030cc <heap_init>
80001198:	00000000 	nop
8000119c:	0c0009bc 	jal	800026f0 <as_init>
800011a0:	00000000 	nop
800011a4:	0c000f4c 	jal	80003d30 <scheduler_init>
800011a8:	00000000 	nop
800011ac:	0c001030 	jal	800040c0 <threads_init>
800011b0:	00000000 	nop
800011b4:	3c028000 	lui	v0,0x8000
800011b8:	24424f90 	addiu	v0,v0,20368
800011bc:	3c058000 	lui	a1,0x8000
800011c0:	afa00014 	sw	zero,20(sp)
800011c4:	afa20010 	sw	v0,16(sp)
800011c8:	00003825 	move	a3,zero
800011cc:	00003025 	move	a2,zero
800011d0:	24a51010 	addiu	a1,a1,4112
800011d4:	0c001216 	jal	80004858 <thread_create_new_as>
800011d8:	27a40018 	addiu	a0,sp,24
800011dc:	10400013 	beqz	v0,8000122c <kernel_main+0xa8>
800011e0:	00402825 	move	a1,v0
800011e4:	2c420008 	sltiu	v0,v0,8
800011e8:	1040001d 	beqz	v0,80001260 <kernel_main+0xdc>
800011ec:	3c068000 	lui	a2,0x8000
800011f0:	3c038000 	lui	v1,0x8000
800011f4:	00051080 	sll	v0,a1,0x2
800011f8:	246350c0 	addiu	v1,v1,20672
800011fc:	00431021 	addu	v0,v0,v1
80001200:	8c460000 	lw	a2,0(v0)
80001204:	3c048000 	lui	a0,0x8000
80001208:	0c0006ea 	jal	80001ba8 <printk>
8000120c:	24844f98 	addiu	a0,a0,20376
80001210:	3c048000 	lui	a0,0x8000
80001214:	0c0008e8 	jal	800023a0 <puts>
80001218:	24844fcc 	addiu	a0,a0,20428
8000121c:	3c048000 	lui	a0,0x8000
80001220:	0c0008e8 	jal	800023a0 <puts>
80001224:	24844ecc 	addiu	a0,a0,20172
80001228:	00000028 	0x28
8000122c:	00000029 	0x29
80001230:	0c000f80 	jal	80003e00 <scheduler_schedule_next>
80001234:	00000000 	nop
80001238:	3c048000 	lui	a0,0x8000
8000123c:	0c0006ea 	jal	80001ba8 <printk>
80001240:	24844fe4 	addiu	a0,a0,20452
80001244:	3c048000 	lui	a0,0x8000
80001248:	0c0008e8 	jal	800023a0 <puts>
8000124c:	24845014 	addiu	a0,a0,20500
80001250:	00000028 	0x28
80001254:	8fbf0024 	lw	ra,36(sp)
80001258:	03e00008 	jr	ra
8000125c:	27bd0028 	addiu	sp,sp,40
80001260:	1000ffe8 	b	80001204 <kernel_main+0x80>
80001264:	24c64e50 	addiu	a2,a2,20048
	...

80001270 <bitmap_init>:
80001270:	000518c2 	srl	v1,a1,0x3
80001274:	ac850000 	sw	a1,0(a0)
80001278:	10600008 	beqz	v1,8000129c <bitmap_init+0x2c>
8000127c:	ac860004 	sw	a2,4(a0)
80001280:	10000002 	b	8000128c <bitmap_init+0x1c>
80001284:	00001025 	move	v0,zero
80001288:	8c860004 	lw	a2,4(a0)
8000128c:	00c23021 	addu	a2,a2,v0
80001290:	24420001 	addiu	v0,v0,1
80001294:	1462fffc 	bne	v1,v0,80001288 <bitmap_init+0x18>
80001298:	a0c00000 	sb	zero,0(a2)
8000129c:	03e00008 	jr	ra
800012a0:	00000000 	nop

800012a4 <bitmap_fill_range>:
800012a4:	8c830004 	lw	v1,4(a0)
800012a8:	000510c2 	srl	v0,a1,0x3
800012ac:	00a64021 	addu	t0,a1,a2
800012b0:	00621821 	addu	v1,v1,v0
800012b4:	000838c2 	srl	a3,t0,0x3
800012b8:	90690000 	lbu	t1,0(v1)
800012bc:	10470018 	beq	v0,a3,80001320 <bitmap_fill_range+0x7c>
800012c0:	30a50007 	andi	a1,a1,0x7
800012c4:	2406ffff 	li	a2,-1
800012c8:	00a62804 	sllv	a1,a2,a1
800012cc:	24420001 	addiu	v0,v0,1
800012d0:	01254825 	or	t1,t1,a1
800012d4:	0047302b 	sltu	a2,v0,a3
800012d8:	a0690000 	sb	t1,0(v1)
800012dc:	10c00006 	beqz	a2,800012f8 <bitmap_fill_range+0x54>
800012e0:	2405ffff 	li	a1,-1
800012e4:	8c830004 	lw	v1,4(a0)
800012e8:	00621821 	addu	v1,v1,v0
800012ec:	24420001 	addiu	v0,v0,1
800012f0:	14e2fffc 	bne	a3,v0,800012e4 <bitmap_fill_range+0x40>
800012f4:	a0650000 	sb	a1,0(v1)
800012f8:	8c820004 	lw	v0,4(a0)
800012fc:	31080007 	andi	t0,t0,0x7
80001300:	00473821 	addu	a3,v0,a3
80001304:	90e30000 	lbu	v1,0(a3)
80001308:	24020001 	li	v0,1
8000130c:	01021004 	sllv	v0,v0,t0
80001310:	2442ffff 	addiu	v0,v0,-1
80001314:	00431025 	or	v0,v0,v1
80001318:	03e00008 	jr	ra
8000131c:	a0e20000 	sb	v0,0(a3)
80001320:	24020001 	li	v0,1
80001324:	00c23004 	sllv	a2,v0,a2
80001328:	24c6ffff 	addiu	a2,a2,-1
8000132c:	00a62804 	sllv	a1,a2,a1
80001330:	01254825 	or	t1,t1,a1
80001334:	03e00008 	jr	ra
80001338:	a0690000 	sb	t1,0(v1)

8000133c <bitmap_clear_range>:
8000133c:	8c830004 	lw	v1,4(a0)
80001340:	000510c2 	srl	v0,a1,0x3
80001344:	00a64021 	addu	t0,a1,a2
80001348:	00621821 	addu	v1,v1,v0
8000134c:	000838c2 	srl	a3,t0,0x3
80001350:	90690000 	lbu	t1,0(v1)
80001354:	10470017 	beq	v0,a3,800013b4 <bitmap_clear_range+0x78>
80001358:	30a50007 	andi	a1,a1,0x7
8000135c:	2406ffff 	li	a2,-1
80001360:	00a62804 	sllv	a1,a2,a1
80001364:	00052827 	nor	a1,zero,a1
80001368:	24420001 	addiu	v0,v0,1
8000136c:	01252824 	and	a1,t1,a1
80001370:	0047302b 	sltu	a2,v0,a3
80001374:	10c00006 	beqz	a2,80001390 <bitmap_clear_range+0x54>
80001378:	a0650000 	sb	a1,0(v1)
8000137c:	8c830004 	lw	v1,4(a0)
80001380:	00621821 	addu	v1,v1,v0
80001384:	24420001 	addiu	v0,v0,1
80001388:	14e2fffc 	bne	a3,v0,8000137c <bitmap_clear_range+0x40>
8000138c:	a0600000 	sb	zero,0(v1)
80001390:	8c820004 	lw	v0,4(a0)
80001394:	31080007 	andi	t0,t0,0x7
80001398:	00473821 	addu	a3,v0,a3
8000139c:	90e30000 	lbu	v1,0(a3)
800013a0:	2402ffff 	li	v0,-1
800013a4:	01021004 	sllv	v0,v0,t0
800013a8:	00431024 	and	v0,v0,v1
800013ac:	03e00008 	jr	ra
800013b0:	a0e20000 	sb	v0,0(a3)
800013b4:	24020001 	li	v0,1
800013b8:	00c23004 	sllv	a2,v0,a2
800013bc:	24c6ffff 	addiu	a2,a2,-1
800013c0:	00a62804 	sllv	a1,a2,a1
800013c4:	00052827 	nor	a1,zero,a1
800013c8:	01254824 	and	t1,t1,a1
800013cc:	03e00008 	jr	ra
800013d0:	a0690000 	sb	t1,0(v1)

800013d4 <bitmap_find_range>:
800013d4:	8c820000 	lw	v0,0(a0)
800013d8:	0045182b 	sltu	v1,v0,a1
800013dc:	14600029 	bnez	v1,80001484 <bitmap_find_range+0xb0>
800013e0:	00457023 	subu	t6,v0,a1
800013e4:	00005025 	move	t2,zero
800013e8:	10450026 	beq	v0,a1,80001484 <bitmap_find_range+0xb0>
800013ec:	240d0001 	li	t5,1
800013f0:	50a0001e 	beqzl	a1,8000146c <bitmap_find_range+0x98>
800013f4:	acea0000 	sw	t2,0(a3)
800013f8:	8c8b0004 	lw	t3,4(a0)
800013fc:	000a18c2 	srl	v1,t2,0x3
80001400:	31480007 	andi	t0,t2,0x7
80001404:	01631821 	addu	v1,t3,v1
80001408:	90620000 	lbu	v0,0(v1)
8000140c:	010d1804 	sllv	v1,t5,t0
80001410:	240c0001 	li	t4,1
80001414:	384200ff 	xori	v0,v0,0xff
80001418:	00431024 	and	v0,v0,v1
8000141c:	2c420001 	sltiu	v0,v0,1
80001420:	10460009 	beq	v0,a2,80001448 <bitmap_find_range+0x74>
80001424:	00004025 	move	t0,zero
80001428:	10000013 	b	80001478 <bitmap_find_range+0xa4>
8000142c:	014c5021 	addu	t2,t2,t4
80001430:	91220000 	lbu	v0,0(t1)
80001434:	384200ff 	xori	v0,v0,0xff
80001438:	00431024 	and	v0,v0,v1
8000143c:	2c420001 	sltiu	v0,v0,1
80001440:	1446000c 	bne	v0,a2,80001474 <bitmap_find_range+0xa0>
80001444:	258c0002 	addiu	t4,t4,2
80001448:	01006025 	move	t4,t0
8000144c:	25080001 	addiu	t0,t0,1
80001450:	010a1021 	addu	v0,t0,t2
80001454:	000248c2 	srl	t1,v0,0x3
80001458:	30420007 	andi	v0,v0,0x7
8000145c:	01694821 	addu	t1,t3,t1
80001460:	14a8fff3 	bne	a1,t0,80001430 <bitmap_find_range+0x5c>
80001464:	004d1804 	sllv	v1,t5,v0
80001468:	acea0000 	sw	t2,0(a3)
8000146c:	03e00008 	jr	ra
80001470:	00001025 	move	v0,zero
80001474:	014c5021 	addu	t2,t2,t4
80001478:	014e102b 	sltu	v0,t2,t6
8000147c:	1440ffdc 	bnez	v0,800013f0 <bitmap_find_range+0x1c>
80001480:	00000000 	nop
80001484:	03e00008 	jr	ra
80001488:	24020005 	li	v0,5

8000148c <bitmap_check_range_is>:
8000148c:	00a63021 	addu	a2,a1,a2
80001490:	00a6102b 	sltu	v0,a1,a2
80001494:	10400019 	beqz	v0,800014fc <bitmap_check_range_is+0x70>
80001498:	000518c2 	srl	v1,a1,0x3
8000149c:	8c880004 	lw	t0,4(a0)
800014a0:	30a40007 	andi	a0,a1,0x7
800014a4:	01031821 	addu	v1,t0,v1
800014a8:	90620000 	lbu	v0,0(v1)
800014ac:	24030001 	li	v1,1
800014b0:	00831804 	sllv	v1,v1,a0
800014b4:	384200ff 	xori	v0,v0,0xff
800014b8:	00431024 	and	v0,v0,v1
800014bc:	2c420001 	sltiu	v0,v0,1
800014c0:	14470010 	bne	v0,a3,80001504 <bitmap_check_range_is+0x78>
800014c4:	24090001 	li	t1,1
800014c8:	10000007 	b	800014e8 <bitmap_check_range_is+0x5c>
800014cc:	24a50001 	addiu	a1,a1,1
800014d0:	90420000 	lbu	v0,0(v0)
800014d4:	384200ff 	xori	v0,v0,0xff
800014d8:	00431024 	and	v0,v0,v1
800014dc:	2c420001 	sltiu	v0,v0,1
800014e0:	14470008 	bne	v0,a3,80001504 <bitmap_check_range_is+0x78>
800014e4:	24a50001 	addiu	a1,a1,1
800014e8:	000510c2 	srl	v0,a1,0x3
800014ec:	30a30007 	andi	v1,a1,0x7
800014f0:	01021021 	addu	v0,t0,v0
800014f4:	14a6fff6 	bne	a1,a2,800014d0 <bitmap_check_range_is+0x44>
800014f8:	00691804 	sllv	v1,t1,v1
800014fc:	03e00008 	jr	ra
80001500:	24020001 	li	v0,1
80001504:	03e00008 	jr	ra
80001508:	00001025 	move	v0,zero
8000150c:	00000000 	nop

80001510 <debug_dump_function>:
80001510:	27bdffd8 	addiu	sp,sp,-40
80001514:	afb2001c 	sw	s2,28(sp)
80001518:	00c09025 	move	s2,a2
8000151c:	00803025 	move	a2,a0
80001520:	3c048000 	lui	a0,0x8000
80001524:	248450e0 	addiu	a0,a0,20704
80001528:	afb00014 	sw	s0,20(sp)
8000152c:	afbf0024 	sw	ra,36(sp)
80001530:	afb30020 	sw	s3,32(sp)
80001534:	afb10018 	sw	s1,24(sp)
80001538:	0c0006ea 	jal	80001ba8 <printk>
8000153c:	00a08025 	move	s0,a1
80001540:	1240000a 	beqz	s2,8000156c <debug_dump_function+0x5c>
80001544:	3c138000 	lui	s3,0x8000
80001548:	00008825 	move	s1,zero
8000154c:	267350ec 	addiu	s3,s3,20716
80001550:	8e060000 	lw	a2,0(s0)
80001554:	02002825 	move	a1,s0
80001558:	02602025 	move	a0,s3
8000155c:	0c0006ea 	jal	80001ba8 <printk>
80001560:	26310001 	addiu	s1,s1,1
80001564:	1651fffa 	bne	s2,s1,80001550 <debug_dump_function+0x40>
80001568:	26100004 	addiu	s0,s0,4
8000156c:	8fbf0024 	lw	ra,36(sp)
80001570:	8fb30020 	lw	s3,32(sp)
80001574:	8fb2001c 	lw	s2,28(sp)
80001578:	8fb10018 	lw	s1,24(sp)
8000157c:	8fb00014 	lw	s0,20(sp)
80001580:	03e00008 	jr	ra
80001584:	27bd0028 	addiu	sp,sp,40
	...

80001590 <debug_get_base_memory_size>:
80001590:	27bdffe8 	addiu	sp,sp,-24
80001594:	afbf0014 	sw	ra,20(sp)
80001598:	0c0005a5 	jal	80001694 <interrupts_disable>
8000159c:	afb00010 	sw	s0,16(sp)
800015a0:	3c038001 	lui	v1,0x8001
800015a4:	246392c4 	addiu	v1,v1,-27964
800015a8:	90630001 	lbu	v1,1(v1)
800015ac:	2405ffff 	li	a1,-1
800015b0:	00031e00 	sll	v1,v1,0x18
800015b4:	00031e03 	sra	v1,v1,0x18
800015b8:	10650014 	beq	v1,a1,8000160c <debug_get_base_memory_size+0x7c>
800015bc:	00402025 	move	a0,v0
800015c0:	3c068001 	lui	a2,0x8001
800015c4:	00001825 	move	v1,zero
800015c8:	24c692c5 	addiu	a2,a2,-27963
800015cc:	2407ffff 	li	a3,-1
800015d0:	00608025 	move	s0,v1
800015d4:	24630400 	addiu	v1,v1,1024
800015d8:	00c32821 	addu	a1,a2,v1
800015dc:	90a50000 	lbu	a1,0(a1)
800015e0:	00052e00 	sll	a1,a1,0x18
800015e4:	00052e03 	sra	a1,a1,0x18
800015e8:	54a7fffa 	bnel	a1,a3,800015d4 <debug_get_base_memory_size+0x44>
800015ec:	00608025 	move	s0,v1
800015f0:	0c0005ad 	jal	800016b4 <interrupts_restore>
800015f4:	00000000 	nop
800015f8:	8fbf0014 	lw	ra,20(sp)
800015fc:	02001025 	move	v0,s0
80001600:	8fb00010 	lw	s0,16(sp)
80001604:	03e00008 	jr	ra
80001608:	27bd0018 	addiu	sp,sp,24
8000160c:	0c0005ad 	jal	800016b4 <interrupts_restore>
80001610:	2410fc00 	li	s0,-1024
80001614:	8fbf0014 	lw	ra,20(sp)
80001618:	02001025 	move	v0,s0
8000161c:	8fb00010 	lw	s0,16(sp)
80001620:	03e00008 	jr	ra
80001624:	27bd0018 	addiu	sp,sp,24
	...

80001630 <handle_exception_general>:
80001630:	8c82008c 	lw	v0,140(a0)
80001634:	00021082 	srl	v0,v0,0x2
80001638:	3042001f 	andi	v0,v0,0x1f
8000163c:	2442ffff 	addiu	v0,v0,-1
80001640:	2c420003 	sltiu	v0,v0,3
80001644:	14400011 	bnez	v0,8000168c <handle_exception_general+0x5c>
80001648:	00000000 	nop
8000164c:	8c820098 	lw	v0,152(a0)
80001650:	00021202 	srl	v0,v0,0x8
80001654:	30420080 	andi	v0,v0,0x80
80001658:	14400003 	bnez	v0,80001668 <handle_exception_general+0x38>
8000165c:	00000000 	nop
80001660:	03e00008 	jr	ra
80001664:	00000000 	nop
80001668:	00000000 	nop
8000166c:	40024800 	mfc0	v0,c0_count
80001670:	3c030098 	lui	v1,0x98
80001674:	34639680 	ori	v1,v1,0x9680
80001678:	00431021 	addu	v0,v0,v1
8000167c:	00000000 	nop
80001680:	40825800 	mtc0	v0,c0_compare
80001684:	080010a4 	j	80004290 <thread_yield>
80001688:	00000000 	nop
8000168c:	08000d64 	j	80003590 <handle_tlb_refill>
80001690:	00000000 	nop

80001694 <interrupts_disable>:
80001694:	00000000 	nop
80001698:	40026000 	mfc0	v0,c0_sr
8000169c:	2403fffe 	li	v1,-2
800016a0:	00431824 	and	v1,v0,v1
800016a4:	00000000 	nop
800016a8:	40836000 	mtc0	v1,c0_sr
800016ac:	03e00008 	jr	ra
800016b0:	30420001 	andi	v0,v0,0x1

800016b4 <interrupts_restore>:
800016b4:	00000000 	nop
800016b8:	40026000 	mfc0	v0,c0_sr
800016bc:	10800006 	beqz	a0,800016d8 <interrupts_restore+0x24>
800016c0:	2403fffe 	li	v1,-2
800016c4:	34420001 	ori	v0,v0,0x1
800016c8:	00000000 	nop
800016cc:	40826000 	mtc0	v0,c0_sr
800016d0:	03e00008 	jr	ra
800016d4:	00000000 	nop
800016d8:	00431024 	and	v0,v0,v1
800016dc:	00000000 	nop
800016e0:	40826000 	mtc0	v0,c0_sr
800016e4:	03e00008 	jr	ra
800016e8:	00000000 	nop
800016ec:	00000000 	nop

800016f0 <handle_exception_general_asm>:
800016f0:	3c1b8000 	lui	k1,0x8000
800016f4:	377b0300 	ori	k1,k1,0x300
800016f8:	401a7000 	mfc0	k0,c0_epc
800016fc:	af7a0000 	sw	k0,0(k1)
80001700:	401a6800 	mfc0	k0,c0_cause
80001704:	af7a0004 	sw	k0,4(k1)
80001708:	401a4000 	mfc0	k0,c0_badvaddr
8000170c:	af7a0008 	sw	k0,8(k1)
80001710:	401a6000 	mfc0	k0,c0_sr
80001714:	af7a000c 	sw	k0,12(k1)
80001718:	241bffe4 	li	k1,-28
8000171c:	401a6000 	mfc0	k0,c0_sr
80001720:	035bd024 	and	k0,k0,k1
80001724:	409a6000 	mtc0	k0,c0_sr
80001728:	27bdff64 	addiu	sp,sp,-156
8000172c:	afa00000 	sw	zero,0(sp)
80001730:	afa10004 	sw	at,4(sp)
80001734:	afa20008 	sw	v0,8(sp)
80001738:	afa3000c 	sw	v1,12(sp)
8000173c:	afa40010 	sw	a0,16(sp)
80001740:	afa50014 	sw	a1,20(sp)
80001744:	afa60018 	sw	a2,24(sp)
80001748:	afa7001c 	sw	a3,28(sp)
8000174c:	afa80020 	sw	t0,32(sp)
80001750:	afa90024 	sw	t1,36(sp)
80001754:	afaa0028 	sw	t2,40(sp)
80001758:	afab002c 	sw	t3,44(sp)
8000175c:	afac0030 	sw	t4,48(sp)
80001760:	afad0034 	sw	t5,52(sp)
80001764:	afae0038 	sw	t6,56(sp)
80001768:	afaf003c 	sw	t7,60(sp)
8000176c:	afb80040 	sw	t8,64(sp)
80001770:	afb90044 	sw	t9,68(sp)
80001774:	afb00048 	sw	s0,72(sp)
80001778:	afb1004c 	sw	s1,76(sp)
8000177c:	afb20050 	sw	s2,80(sp)
80001780:	afb30054 	sw	s3,84(sp)
80001784:	afb40058 	sw	s4,88(sp)
80001788:	afb5005c 	sw	s5,92(sp)
8000178c:	afb60060 	sw	s6,96(sp)
80001790:	afb70064 	sw	s7,100(sp)
80001794:	afbc0070 	sw	gp,112(sp)
80001798:	afbe0074 	sw	s8,116(sp)
8000179c:	afbf007c 	sw	ra,124(sp)
800017a0:	00004012 	mflo	t0
800017a4:	00004810 	mfhi	t1
800017a8:	afa80080 	sw	t0,128(sp)
800017ac:	afa90084 	sw	t1,132(sp)
800017b0:	3c098000 	lui	t1,0x8000
800017b4:	35290300 	ori	t1,t1,0x300
800017b8:	8d280000 	lw	t0,0(t1)
800017bc:	afa80088 	sw	t0,136(sp)
800017c0:	8d280004 	lw	t0,4(t1)
800017c4:	afa8008c 	sw	t0,140(sp)
800017c8:	8d280008 	lw	t0,8(t1)
800017cc:	afa80090 	sw	t0,144(sp)
800017d0:	8d28000c 	lw	t0,12(t1)
800017d4:	afa80098 	sw	t0,152(sp)
800017d8:	001d2025 	or	a0,zero,sp
800017dc:	0c00058c 	jal	80001630 <handle_exception_general>
800017e0:	27bdffe0 	addiu	sp,sp,-32
800017e4:	27bd0020 	addiu	sp,sp,32
800017e8:	3c098000 	lui	t1,0x8000
800017ec:	35290300 	ori	t1,t1,0x300
800017f0:	8fa80088 	lw	t0,136(sp)
800017f4:	ad280000 	sw	t0,0(t1)
800017f8:	8fa8008c 	lw	t0,140(sp)
800017fc:	ad280004 	sw	t0,4(t1)
80001800:	8fa80090 	lw	t0,144(sp)
80001804:	ad280008 	sw	t0,8(t1)
80001808:	8fa80098 	lw	t0,152(sp)
8000180c:	ad28000c 	sw	t0,12(t1)
80001810:	8fa80080 	lw	t0,128(sp)
80001814:	8fa90084 	lw	t1,132(sp)
80001818:	01000013 	mtlo	t0
8000181c:	01200011 	mthi	t1
80001820:	8fbf007c 	lw	ra,124(sp)
80001824:	8fbe0074 	lw	s8,116(sp)
80001828:	8fbc0070 	lw	gp,112(sp)
8000182c:	8fb70064 	lw	s7,100(sp)
80001830:	8fb60060 	lw	s6,96(sp)
80001834:	8fb5005c 	lw	s5,92(sp)
80001838:	8fb40058 	lw	s4,88(sp)
8000183c:	8fb30054 	lw	s3,84(sp)
80001840:	8fb20050 	lw	s2,80(sp)
80001844:	8fb1004c 	lw	s1,76(sp)
80001848:	8fb00048 	lw	s0,72(sp)
8000184c:	8fb90044 	lw	t9,68(sp)
80001850:	8fb80040 	lw	t8,64(sp)
80001854:	8faf003c 	lw	t7,60(sp)
80001858:	8fae0038 	lw	t6,56(sp)
8000185c:	8fad0034 	lw	t5,52(sp)
80001860:	8fac0030 	lw	t4,48(sp)
80001864:	8fab002c 	lw	t3,44(sp)
80001868:	8faa0028 	lw	t2,40(sp)
8000186c:	8fa90024 	lw	t1,36(sp)
80001870:	8fa80020 	lw	t0,32(sp)
80001874:	8fa7001c 	lw	a3,28(sp)
80001878:	8fa60018 	lw	a2,24(sp)
8000187c:	8fa50014 	lw	a1,20(sp)
80001880:	8fa40010 	lw	a0,16(sp)
80001884:	8fa3000c 	lw	v1,12(sp)
80001888:	8fa20008 	lw	v0,8(sp)
8000188c:	8fa10004 	lw	at,4(sp)
80001890:	8fa00000 	lw	zero,0(sp)
80001894:	27bd009c 	addiu	sp,sp,156
80001898:	3c1b8000 	lui	k1,0x8000
8000189c:	377b0300 	ori	k1,k1,0x300
800018a0:	8f7a0000 	lw	k0,0(k1)
800018a4:	409a7000 	mtc0	k0,c0_epc
800018a8:	8f7a000c 	lw	k0,12(k1)
800018ac:	409a6000 	mtc0	k0,c0_sr
800018b0:	42000018 	eret

800018b4 <handle_tlb_refill_asm>:
800018b4:	3c1b8000 	lui	k1,0x8000
800018b8:	377b09c0 	ori	k1,k1,0x9c0
800018bc:	af7d0010 	sw	sp,16(k1)
800018c0:	401a7000 	mfc0	k0,c0_epc
800018c4:	af7a0000 	sw	k0,0(k1)
800018c8:	401a6800 	mfc0	k0,c0_cause
800018cc:	af7a0004 	sw	k0,4(k1)
800018d0:	401a4000 	mfc0	k0,c0_badvaddr
800018d4:	af7a0008 	sw	k0,8(k1)
800018d8:	401a6000 	mfc0	k0,c0_sr
800018dc:	af7a000c 	sw	k0,12(k1)
800018e0:	3c1d8000 	lui	sp,0x8000
800018e4:	37bd0900 	ori	sp,sp,0x900
800018e8:	27bdff64 	addiu	sp,sp,-156
800018ec:	afa00000 	sw	zero,0(sp)
800018f0:	afa10004 	sw	at,4(sp)
800018f4:	afa20008 	sw	v0,8(sp)
800018f8:	afa3000c 	sw	v1,12(sp)
800018fc:	afa40010 	sw	a0,16(sp)
80001900:	afa50014 	sw	a1,20(sp)
80001904:	afa60018 	sw	a2,24(sp)
80001908:	afa7001c 	sw	a3,28(sp)
8000190c:	afa80020 	sw	t0,32(sp)
80001910:	afa90024 	sw	t1,36(sp)
80001914:	afaa0028 	sw	t2,40(sp)
80001918:	afab002c 	sw	t3,44(sp)
8000191c:	afac0030 	sw	t4,48(sp)
80001920:	afad0034 	sw	t5,52(sp)
80001924:	afae0038 	sw	t6,56(sp)
80001928:	afaf003c 	sw	t7,60(sp)
8000192c:	afb80040 	sw	t8,64(sp)
80001930:	afb90044 	sw	t9,68(sp)
80001934:	afb00048 	sw	s0,72(sp)
80001938:	afb1004c 	sw	s1,76(sp)
8000193c:	afb20050 	sw	s2,80(sp)
80001940:	afb30054 	sw	s3,84(sp)
80001944:	afb40058 	sw	s4,88(sp)
80001948:	afb5005c 	sw	s5,92(sp)
8000194c:	afb60060 	sw	s6,96(sp)
80001950:	afb70064 	sw	s7,100(sp)
80001954:	afbc0070 	sw	gp,112(sp)
80001958:	afbe0074 	sw	s8,116(sp)
8000195c:	afbf007c 	sw	ra,124(sp)
80001960:	00004012 	mflo	t0
80001964:	00004810 	mfhi	t1
80001968:	afa80080 	sw	t0,128(sp)
8000196c:	afa90084 	sw	t1,132(sp)
80001970:	3c098000 	lui	t1,0x8000
80001974:	352909c0 	ori	t1,t1,0x9c0
80001978:	8d280000 	lw	t0,0(t1)
8000197c:	afa80088 	sw	t0,136(sp)
80001980:	8d280004 	lw	t0,4(t1)
80001984:	afa8008c 	sw	t0,140(sp)
80001988:	8d280008 	lw	t0,8(t1)
8000198c:	afa80090 	sw	t0,144(sp)
80001990:	8d28000c 	lw	t0,12(t1)
80001994:	afa80098 	sw	t0,152(sp)
80001998:	001d2025 	or	a0,zero,sp
	...
800019a4:	0c000d64 	jal	80003590 <handle_tlb_refill>
800019a8:	27bdffe0 	addiu	sp,sp,-32
800019ac:	27bd0020 	addiu	sp,sp,32
800019b0:	3c098000 	lui	t1,0x8000
800019b4:	352909c0 	ori	t1,t1,0x9c0
800019b8:	8fa80088 	lw	t0,136(sp)
800019bc:	ad280000 	sw	t0,0(t1)
800019c0:	8fa8008c 	lw	t0,140(sp)
800019c4:	ad280004 	sw	t0,4(t1)
800019c8:	8fa80090 	lw	t0,144(sp)
800019cc:	ad280008 	sw	t0,8(t1)
800019d0:	8fa80098 	lw	t0,152(sp)
800019d4:	ad28000c 	sw	t0,12(t1)
800019d8:	8fa80080 	lw	t0,128(sp)
800019dc:	8fa90084 	lw	t1,132(sp)
800019e0:	01000013 	mtlo	t0
800019e4:	01200011 	mthi	t1
800019e8:	8fbf007c 	lw	ra,124(sp)
800019ec:	8fbe0074 	lw	s8,116(sp)
800019f0:	8fbc0070 	lw	gp,112(sp)
800019f4:	8fb70064 	lw	s7,100(sp)
800019f8:	8fb60060 	lw	s6,96(sp)
800019fc:	8fb5005c 	lw	s5,92(sp)
80001a00:	8fb40058 	lw	s4,88(sp)
80001a04:	8fb30054 	lw	s3,84(sp)
80001a08:	8fb20050 	lw	s2,80(sp)
80001a0c:	8fb1004c 	lw	s1,76(sp)
80001a10:	8fb00048 	lw	s0,72(sp)
80001a14:	8fb90044 	lw	t9,68(sp)
80001a18:	8fb80040 	lw	t8,64(sp)
80001a1c:	8faf003c 	lw	t7,60(sp)
80001a20:	8fae0038 	lw	t6,56(sp)
80001a24:	8fad0034 	lw	t5,52(sp)
80001a28:	8fac0030 	lw	t4,48(sp)
80001a2c:	8fab002c 	lw	t3,44(sp)
80001a30:	8faa0028 	lw	t2,40(sp)
80001a34:	8fa90024 	lw	t1,36(sp)
80001a38:	8fa80020 	lw	t0,32(sp)
80001a3c:	8fa7001c 	lw	a3,28(sp)
80001a40:	8fa60018 	lw	a2,24(sp)
80001a44:	8fa50014 	lw	a1,20(sp)
80001a48:	8fa40010 	lw	a0,16(sp)
80001a4c:	8fa3000c 	lw	v1,12(sp)
80001a50:	8fa20008 	lw	v0,8(sp)
80001a54:	8fa10004 	lw	at,4(sp)
80001a58:	8fa00000 	lw	zero,0(sp)
80001a5c:	27bd009c 	addiu	sp,sp,156
80001a60:	3c1b8000 	lui	k1,0x8000
80001a64:	377b09c0 	ori	k1,k1,0x9c0
80001a68:	8f7a0000 	lw	k0,0(k1)
80001a6c:	409a7000 	mtc0	k0,c0_epc
80001a70:	8f7a000c 	lw	k0,12(k1)
80001a74:	409a6000 	mtc0	k0,c0_sr
80001a78:	8f7d0010 	lw	sp,16(k1)
80001a7c:	42000018 	eret

80001a80 <handle_syscall>:
80001a80:	8c830008 	lw	v1,8(a0)
80001a84:	24020002 	li	v0,2
80001a88:	10620005 	beq	v1,v0,80001aa0 <handle_syscall+0x20>
80001a8c:	3c028001 	lui	v0,0x8001
80001a90:	8c820088 	lw	v0,136(a0)
80001a94:	24420004 	addiu	v0,v0,4
80001a98:	03e00008 	jr	ra
80001a9c:	ac820088 	sw	v0,136(a0)
80001aa0:	8c42905c 	lw	v0,-28580(v0)
80001aa4:	5040fffb 	beqzl	v0,80001a94 <handle_syscall+0x14>
80001aa8:	8c820088 	lw	v0,136(a0)
80001aac:	8c430010 	lw	v1,16(v0)
80001ab0:	8c470008 	lw	a3,8(v0)
80001ab4:	8c46000c 	lw	a2,12(v0)
80001ab8:	24630001 	addiu	v1,v1,1
80001abc:	8c850010 	lw	a1,16(a0)
80001ac0:	ac430010 	sw	v1,16(v0)
80001ac4:	8c820088 	lw	v0,136(a0)
80001ac8:	aca70000 	sw	a3,0(a1)
80001acc:	aca60004 	sw	a2,4(a1)
80001ad0:	24420004 	addiu	v0,v0,4
80001ad4:	aca30008 	sw	v1,8(a1)
80001ad8:	03e00008 	jr	ra
80001adc:	ac820088 	sw	v0,136(a0)

80001ae0 <print_int>:
80001ae0:	27bdffc8 	addiu	sp,sp,-56
80001ae4:	27a90031 	addiu	t1,sp,49
80001ae8:	01201025 	move	v0,t1
80001aec:	a3a00031 	sb	zero,49(sp)
80001af0:	0086001b 	divu	zero,a0,a2
80001af4:	00000000 	nop
80001af8:	00c001f4 	teq	a2,zero,0x7
80001afc:	2442ffff 	addiu	v0,v0,-1
80001b00:	0086402b 	sltu	t0,a0,a2
80001b04:	01225023 	subu	t2,t1,v0
80001b08:	00001810 	mfhi	v1
80001b0c:	00a31821 	addu	v1,a1,v1
80001b10:	80630000 	lb	v1,0(v1)
80001b14:	00002012 	mflo	a0
80001b18:	1100fff5 	beqz	t0,80001af0 <print_int+0x10>
80001b1c:	a0430000 	sb	v1,0(v0)
80001b20:	24040010 	li	a0,16
80001b24:	10c4000a 	beq	a2,a0,80001b50 <print_int+0x70>
80001b28:	29440008 	slti	a0,t2,8
80001b2c:	10600006 	beqz	v1,80001b48 <print_int+0x68>
80001b30:	00000000 	nop
80001b34:	3c049000 	lui	a0,0x9000
80001b38:	a0830000 	sb	v1,0(a0)
80001b3c:	80430001 	lb	v1,1(v0)
80001b40:	1460fffd 	bnez	v1,80001b38 <print_int+0x58>
80001b44:	24420001 	addiu	v0,v0,1
80001b48:	03e00008 	jr	ra
80001b4c:	27bd0038 	addiu	sp,sp,56
80001b50:	1080fff6 	beqz	a0,80001b2c <print_int+0x4c>
80001b54:	00000000 	nop
80001b58:	10e0fff4 	beqz	a3,80001b2c <print_int+0x4c>
80001b5c:	00000000 	nop
80001b60:	00401825 	move	v1,v0
80001b64:	24050030 	li	a1,48
80001b68:	2463ffff 	addiu	v1,v1,-1
80001b6c:	01232023 	subu	a0,t1,v1
80001b70:	2c840008 	sltiu	a0,a0,8
80001b74:	1480fffc 	bnez	a0,80001b68 <print_int+0x88>
80001b78:	a0650000 	sb	a1,0(v1)
80001b7c:	25430001 	addiu	v1,t2,1
80001b80:	2c630009 	sltiu	v1,v1,9
80001b84:	14600004 	bnez	v1,80001b98 <print_int+0xb8>
80001b88:	2404ffff 	li	a0,-1
80001b8c:	00441021 	addu	v0,v0,a0
80001b90:	1000ffe8 	b	80001b34 <print_int+0x54>
80001b94:	24030030 	li	v1,48
80001b98:	2544fff8 	addiu	a0,t2,-8
80001b9c:	00441021 	addu	v0,v0,a0
80001ba0:	1000ffe4 	b	80001b34 <print_int+0x54>
80001ba4:	24030030 	li	v1,48

80001ba8 <printk>:
80001ba8:	27bdff78 	addiu	sp,sp,-136
80001bac:	afbf0084 	sw	ra,132(sp)
80001bb0:	afbe0080 	sw	s8,128(sp)
80001bb4:	afb7007c 	sw	s7,124(sp)
80001bb8:	afb60078 	sw	s6,120(sp)
80001bbc:	afb50074 	sw	s5,116(sp)
80001bc0:	afb40070 	sw	s4,112(sp)
80001bc4:	afb3006c 	sw	s3,108(sp)
80001bc8:	afb20068 	sw	s2,104(sp)
80001bcc:	afb10064 	sw	s1,100(sp)
80001bd0:	afb00060 	sw	s0,96(sp)
80001bd4:	afa5008c 	sw	a1,140(sp)
80001bd8:	afa60090 	sw	a2,144(sp)
80001bdc:	afa70094 	sw	a3,148(sp)
80001be0:	80820000 	lb	v0,0(a0)
80001be4:	27a3008c 	addiu	v1,sp,140
80001be8:	10400013 	beqz	v0,80001c38 <printk+0x90>
80001bec:	afa30054 	sw	v1,84(sp)
80001bf0:	3c118000 	lui	s1,0x8000
80001bf4:	3c128000 	lui	s2,0x8000
80001bf8:	3c138000 	lui	s3,0x8000
80001bfc:	8e345134 	lw	s4,20788(s1)
80001c00:	8e565148 	lw	s6,20808(s2)
80001c04:	8e755154 	lw	s5,20820(s3)
80001c08:	00808025 	move	s0,a0
80001c0c:	3c1e8000 	lui	s8,0x8000
80001c10:	3c178000 	lui	s7,0x8000
80001c14:	24030025 	li	v1,37
80001c18:	10430013 	beq	v0,v1,80001c68 <printk+0xc0>
80001c1c:	26060001 	addiu	a2,s0,1
80001c20:	3c039000 	lui	v1,0x9000
80001c24:	a0620000 	sb	v0,0(v1)
80001c28:	00c08025 	move	s0,a2
80001c2c:	82020000 	lb	v0,0(s0)
80001c30:	1440fff9 	bnez	v0,80001c18 <printk+0x70>
80001c34:	24030025 	li	v1,37
80001c38:	8fbf0084 	lw	ra,132(sp)
80001c3c:	8fbe0080 	lw	s8,128(sp)
80001c40:	8fb7007c 	lw	s7,124(sp)
80001c44:	8fb60078 	lw	s6,120(sp)
80001c48:	8fb50074 	lw	s5,116(sp)
80001c4c:	8fb40070 	lw	s4,112(sp)
80001c50:	8fb3006c 	lw	s3,108(sp)
80001c54:	8fb20068 	lw	s2,104(sp)
80001c58:	8fb10064 	lw	s1,100(sp)
80001c5c:	8fb00060 	lw	s0,96(sp)
80001c60:	03e00008 	jr	ra
80001c64:	27bd0088 	addiu	sp,sp,136
80001c68:	82040001 	lb	a0,1(s0)
80001c6c:	54820005 	bnel	a0,v0,80001c84 <printk+0xdc>
80001c70:	24020073 	li	v0,115
80001c74:	3c039000 	lui	v1,0x9000
80001c78:	a0620000 	sb	v0,0(v1)
80001c7c:	82040001 	lb	a0,1(s0)
80001c80:	24020073 	li	v0,115
80001c84:	1082007f 	beq	a0,v0,80001e84 <printk+0x2dc>
80001c88:	24020075 	li	v0,117
80001c8c:	1082008e 	beq	a0,v0,80001ec8 <printk+0x320>
80001c90:	8fa20054 	lw	v0,84(sp)
80001c94:	24020078 	li	v0,120
80001c98:	108200b3 	beq	a0,v0,80001f68 <printk+0x3c0>
80001c9c:	8fa20054 	lw	v0,84(sp)
80001ca0:	24020058 	li	v0,88
80001ca4:	108200d2 	beq	a0,v0,80001ff0 <printk+0x448>
80001ca8:	8fa20054 	lw	v0,84(sp)
80001cac:	24020064 	li	v0,100
80001cb0:	108200f0 	beq	a0,v0,80002074 <printk+0x4cc>
80001cb4:	8fa30054 	lw	v1,84(sp)
80001cb8:	24020063 	li	v0,99
80001cbc:	14820009 	bne	a0,v0,80001ce4 <printk+0x13c>
80001cc0:	24020070 	li	v0,112
80001cc4:	8fa20054 	lw	v0,84(sp)
80001cc8:	80430000 	lb	v1,0(v0)
80001ccc:	24420004 	addiu	v0,v0,4
80001cd0:	afa20054 	sw	v0,84(sp)
80001cd4:	3c029000 	lui	v0,0x9000
80001cd8:	a0430000 	sb	v1,0(v0)
80001cdc:	82040001 	lb	a0,1(s0)
80001ce0:	24020070 	li	v0,112
80001ce4:	10820016 	beq	a0,v0,80001d40 <printk+0x198>
80001ce8:	26225134 	addiu	v0,s1,20788
80001cec:	24020061 	li	v0,97
80001cf0:	1482ffce 	bne	a0,v0,80001c2c <printk+0x84>
80001cf4:	24d00001 	addiu	s0,a2,1
80001cf8:	8fa20054 	lw	v0,84(sp)
80001cfc:	26235134 	addiu	v1,s1,20788
80001d00:	8c690004 	lw	t1,4(v1)
80001d04:	8c680008 	lw	t0,8(v1)
80001d08:	8c440000 	lw	a0,0(v0)
80001d0c:	8c63000c 	lw	v1,12(v1)
80001d10:	24420004 	addiu	v0,v0,4
80001d14:	24070001 	li	a3,1
80001d18:	24060010 	li	a2,16
80001d1c:	27a50010 	addiu	a1,sp,16
80001d20:	afa20054 	sw	v0,84(sp)
80001d24:	afb40010 	sw	s4,16(sp)
80001d28:	afa90014 	sw	t1,20(sp)
80001d2c:	afa80018 	sw	t0,24(sp)
80001d30:	0c0006b8 	jal	80001ae0 <print_int>
80001d34:	afa3001c 	sw	v1,28(sp)
80001d38:	1000ffbd 	b	80001c30 <printk+0x88>
80001d3c:	82020000 	lb	v0,0(s0)
80001d40:	8fa30054 	lw	v1,84(sp)
80001d44:	8c490004 	lw	t1,4(v0)
80001d48:	8c480008 	lw	t0,8(v0)
80001d4c:	8c47000c 	lw	a3,12(v0)
80001d50:	8e2a5134 	lw	t2,20788(s1)
80001d54:	82020002 	lb	v0,2(s0)
80001d58:	2405004c 	li	a1,76
80001d5c:	8c640000 	lw	a0,0(v1)
80001d60:	26060002 	addiu	a2,s0,2
80001d64:	afaa0044 	sw	t2,68(sp)
80001d68:	afa90048 	sw	t1,72(sp)
80001d6c:	afa8004c 	sw	t0,76(sp)
80001d70:	afa70050 	sw	a3,80(sp)
80001d74:	1045010c 	beq	v0,a1,800021a8 <printk+0x600>
80001d78:	24630004 	addiu	v1,v1,4
80001d7c:	24050054 	li	a1,84
80001d80:	14450028 	bne	v0,a1,80001e24 <printk+0x27c>
80001d84:	3c059000 	lui	a1,0x9000
80001d88:	afa30054 	sw	v1,84(sp)
80001d8c:	27c35104 	addiu	v1,s8,20740
80001d90:	a0a20000 	sb	v0,0(a1)
80001d94:	80620001 	lb	v0,1(v1)
80001d98:	1440fffd 	bnez	v0,80001d90 <printk+0x1e8>
80001d9c:	24630001 	addiu	v1,v1,1
80001da0:	2402000a 	li	v0,10
80001da4:	a0a20000 	sb	v0,0(a1)
80001da8:	26e35114 	addiu	v1,s7,20756
80001dac:	2402004e 	li	v0,78
80001db0:	3c059000 	lui	a1,0x9000
80001db4:	a0a20000 	sb	v0,0(a1)
80001db8:	80620001 	lb	v0,1(v1)
80001dbc:	1440fffd 	bnez	v0,80001db4 <printk+0x20c>
80001dc0:	24630001 	addiu	v1,v1,1
80001dc4:	2402000a 	li	v0,10
80001dc8:	a0a20000 	sb	v0,0(a1)
80001dcc:	80820000 	lb	v0,0(a0)
80001dd0:	00801825 	move	v1,a0
80001dd4:	10400005 	beqz	v0,80001dec <printk+0x244>
80001dd8:	3c059000 	lui	a1,0x9000
80001ddc:	a0a20000 	sb	v0,0(a1)
80001de0:	80620001 	lb	v0,1(v1)
80001de4:	1440fffd 	bnez	v0,80001ddc <printk+0x234>
80001de8:	24630001 	addiu	v1,v1,1
80001dec:	3c029000 	lui	v0,0x9000
80001df0:	2403000a 	li	v1,10
80001df4:	a0430000 	sb	v1,0(v0)
80001df8:	8c820020 	lw	v0,32(a0)
80001dfc:	144000c6 	bnez	v0,80002118 <printk+0x570>
80001e00:	3c028000 	lui	v0,0x8000
80001e04:	8c850024 	lw	a1,36(a0)
80001e08:	3c048000 	lui	a0,0x8000
80001e0c:	24845128 	addiu	a0,a0,20776
80001e10:	0c0006ea 	jal	80001ba8 <printk>
80001e14:	afa60058 	sw	a2,88(sp)
80001e18:	8fa60058 	lw	a2,88(sp)
80001e1c:	1000ffb3 	b	80001cec <printk+0x144>
80001e20:	82040002 	lb	a0,2(s0)
80001e24:	afa30054 	sw	v1,84(sp)
80001e28:	24030030 	li	v1,48
80001e2c:	24070078 	li	a3,120
80001e30:	a0a30000 	sb	v1,0(a1)
80001e34:	27a20041 	addiu	v0,sp,65
80001e38:	a0a70000 	sb	a3,0(a1)
80001e3c:	27a30010 	addiu	v1,sp,16
80001e40:	a3a00041 	sb	zero,65(sp)
80001e44:	3085000f 	andi	a1,a0,0xf
80001e48:	00652821 	addu	a1,v1,a1
80001e4c:	80a50034 	lb	a1,52(a1)
80001e50:	2c870010 	sltiu	a3,a0,16
80001e54:	2442ffff 	addiu	v0,v0,-1
80001e58:	00042102 	srl	a0,a0,0x4
80001e5c:	10e0fff9 	beqz	a3,80001e44 <printk+0x29c>
80001e60:	a0450000 	sb	a1,0(v0)
80001e64:	10a0ff70 	beqz	a1,80001c28 <printk+0x80>
80001e68:	3c039000 	lui	v1,0x9000
80001e6c:	a0650000 	sb	a1,0(v1)
80001e70:	80450001 	lb	a1,1(v0)
80001e74:	14a0fffd 	bnez	a1,80001e6c <printk+0x2c4>
80001e78:	24420001 	addiu	v0,v0,1
80001e7c:	1000ff6b 	b	80001c2c <printk+0x84>
80001e80:	00c08025 	move	s0,a2
80001e84:	8fa20054 	lw	v0,84(sp)
80001e88:	8c430000 	lw	v1,0(v0)
80001e8c:	24420004 	addiu	v0,v0,4
80001e90:	afa20054 	sw	v0,84(sp)
80001e94:	80620000 	lb	v0,0(v1)
80001e98:	5040ff95 	beqzl	v0,80001cf0 <printk+0x148>
80001e9c:	24020061 	li	v0,97
80001ea0:	3c049000 	lui	a0,0x9000
80001ea4:	a0820000 	sb	v0,0(a0)
80001ea8:	80620001 	lb	v0,1(v1)
80001eac:	1440fffd 	bnez	v0,80001ea4 <printk+0x2fc>
80001eb0:	24630001 	addiu	v1,v1,1
80001eb4:	82040001 	lb	a0,1(s0)
80001eb8:	24020075 	li	v0,117
80001ebc:	1482ff76 	bne	a0,v0,80001c98 <printk+0xf0>
80001ec0:	24020078 	li	v0,120
80001ec4:	8fa20054 	lw	v0,84(sp)
80001ec8:	26435148 	addiu	v1,s2,20808
80001ecc:	8e475148 	lw	a3,20808(s2)
80001ed0:	8c650004 	lw	a1,4(v1)
80001ed4:	94630008 	lhu	v1,8(v1)
80001ed8:	8c490000 	lw	t1,0(v0)
80001edc:	3c0bcccc 	lui	t3,0xcccc
80001ee0:	24420004 	addiu	v0,v0,4
80001ee4:	afa70044 	sw	a3,68(sp)
80001ee8:	a7a3004c 	sh	v1,76(sp)
80001eec:	afa20054 	sw	v0,84(sp)
80001ef0:	afa50048 	sw	a1,72(sp)
80001ef4:	a3a00041 	sb	zero,65(sp)
80001ef8:	27a70041 	addiu	a3,sp,65
80001efc:	27a30010 	addiu	v1,sp,16
80001f00:	356bcccd 	ori	t3,t3,0xcccd
80001f04:	012b0019 	multu	t1,t3
80001f08:	00002810 	mfhi	a1
80001f0c:	24e7ffff 	addiu	a3,a3,-1
80001f10:	2d2a000a 	sltiu	t2,t1,10
80001f14:	000528c2 	srl	a1,a1,0x3
80001f18:	00051080 	sll	v0,a1,0x2
80001f1c:	00451021 	addu	v0,v0,a1
80001f20:	00021040 	sll	v0,v0,0x1
80001f24:	01221023 	subu	v0,t1,v0
80001f28:	00621021 	addu	v0,v1,v0
80001f2c:	80480034 	lb	t0,52(v0)
80001f30:	00a04825 	move	t1,a1
80001f34:	1140fff3 	beqz	t2,80001f04 <printk+0x35c>
80001f38:	a0e80000 	sb	t0,0(a3)
80001f3c:	1100ff5b 	beqz	t0,80001cac <printk+0x104>
80001f40:	3c029000 	lui	v0,0x9000
80001f44:	a0480000 	sb	t0,0(v0)
80001f48:	80e80001 	lb	t0,1(a3)
80001f4c:	1500fffd 	bnez	t0,80001f44 <printk+0x39c>
80001f50:	24e70001 	addiu	a3,a3,1
80001f54:	82040001 	lb	a0,1(s0)
80001f58:	24020078 	li	v0,120
80001f5c:	1482ff51 	bne	a0,v0,80001ca4 <printk+0xfc>
80001f60:	24020058 	li	v0,88
80001f64:	8fa20054 	lw	v0,84(sp)
80001f68:	26235134 	addiu	v1,s1,20788
80001f6c:	8c680004 	lw	t0,4(v1)
80001f70:	8c650008 	lw	a1,8(v1)
80001f74:	8e295134 	lw	t1,20788(s1)
80001f78:	8c63000c 	lw	v1,12(v1)
80001f7c:	8c470000 	lw	a3,0(v0)
80001f80:	24420004 	addiu	v0,v0,4
80001f84:	afa20054 	sw	v0,84(sp)
80001f88:	afa30050 	sw	v1,80(sp)
80001f8c:	afa90044 	sw	t1,68(sp)
80001f90:	afa80048 	sw	t0,72(sp)
80001f94:	afa5004c 	sw	a1,76(sp)
80001f98:	a3a00041 	sb	zero,65(sp)
80001f9c:	27a20041 	addiu	v0,sp,65
80001fa0:	27a30010 	addiu	v1,sp,16
80001fa4:	30e5000f 	andi	a1,a3,0xf
80001fa8:	00652821 	addu	a1,v1,a1
80001fac:	80a50034 	lb	a1,52(a1)
80001fb0:	2ce80010 	sltiu	t0,a3,16
80001fb4:	2442ffff 	addiu	v0,v0,-1
80001fb8:	00073902 	srl	a3,a3,0x4
80001fbc:	1100fff9 	beqz	t0,80001fa4 <printk+0x3fc>
80001fc0:	a0450000 	sb	a1,0(v0)
80001fc4:	10a0ff49 	beqz	a1,80001cec <printk+0x144>
80001fc8:	3c039000 	lui	v1,0x9000
80001fcc:	a0650000 	sb	a1,0(v1)
80001fd0:	80450001 	lb	a1,1(v0)
80001fd4:	14a0fffd 	bnez	a1,80001fcc <printk+0x424>
80001fd8:	24420001 	addiu	v0,v0,1
80001fdc:	82040001 	lb	a0,1(s0)
80001fe0:	24020058 	li	v0,88
80001fe4:	1482ff32 	bne	a0,v0,80001cb0 <printk+0x108>
80001fe8:	24020064 	li	v0,100
80001fec:	8fa20054 	lw	v0,84(sp)
80001ff0:	26635154 	addiu	v1,s3,20820
80001ff4:	8c680004 	lw	t0,4(v1)
80001ff8:	8c650008 	lw	a1,8(v1)
80001ffc:	8c63000c 	lw	v1,12(v1)
80002000:	8c470000 	lw	a3,0(v0)
80002004:	24420004 	addiu	v0,v0,4
80002008:	afa20054 	sw	v0,84(sp)
8000200c:	afa30050 	sw	v1,80(sp)
80002010:	afb50044 	sw	s5,68(sp)
80002014:	afa80048 	sw	t0,72(sp)
80002018:	afa5004c 	sw	a1,76(sp)
8000201c:	a3a00041 	sb	zero,65(sp)
80002020:	27a20041 	addiu	v0,sp,65
80002024:	27a30010 	addiu	v1,sp,16
80002028:	30e5000f 	andi	a1,a3,0xf
8000202c:	00652821 	addu	a1,v1,a1
80002030:	80a50034 	lb	a1,52(a1)
80002034:	2ce80010 	sltiu	t0,a3,16
80002038:	2442ffff 	addiu	v0,v0,-1
8000203c:	00073902 	srl	a3,a3,0x4
80002040:	1100fff9 	beqz	t0,80002028 <printk+0x480>
80002044:	a0450000 	sb	a1,0(v0)
80002048:	10a0ff25 	beqz	a1,80001ce0 <printk+0x138>
8000204c:	3c039000 	lui	v1,0x9000
80002050:	a0650000 	sb	a1,0(v1)
80002054:	80450001 	lb	a1,1(v0)
80002058:	14a0fffd 	bnez	a1,80002050 <printk+0x4a8>
8000205c:	24420001 	addiu	v0,v0,1
80002060:	82040001 	lb	a0,1(s0)
80002064:	24020064 	li	v0,100
80002068:	1482ff14 	bne	a0,v0,80001cbc <printk+0x114>
8000206c:	24020063 	li	v0,99
80002070:	8fa30054 	lw	v1,84(sp)
80002074:	8c620000 	lw	v0,0(v1)
80002078:	24630004 	addiu	v1,v1,4
8000207c:	04410005 	bgez	v0,80002094 <printk+0x4ec>
80002080:	afa30054 	sw	v1,84(sp)
80002084:	3c039000 	lui	v1,0x9000
80002088:	2404002d 	li	a0,45
8000208c:	a0640000 	sb	a0,0(v1)
80002090:	00021023 	negu	v0,v0
80002094:	26435148 	addiu	v1,s2,20808
80002098:	8c640004 	lw	a0,4(v1)
8000209c:	94630008 	lhu	v1,8(v1)
800020a0:	3c09cccc 	lui	t1,0xcccc
800020a4:	afb60044 	sw	s6,68(sp)
800020a8:	a7a3004c 	sh	v1,76(sp)
800020ac:	afa40048 	sw	a0,72(sp)
800020b0:	a3a00041 	sb	zero,65(sp)
800020b4:	27a70041 	addiu	a3,sp,65
800020b8:	27a30010 	addiu	v1,sp,16
800020bc:	3529cccd 	ori	t1,t1,0xcccd
800020c0:	00490019 	multu	v0,t1
800020c4:	00002010 	mfhi	a0
800020c8:	2c48000a 	sltiu	t0,v0,10
800020cc:	24e7ffff 	addiu	a3,a3,-1
800020d0:	000420c2 	srl	a0,a0,0x3
800020d4:	00042880 	sll	a1,a0,0x2
800020d8:	00a42821 	addu	a1,a1,a0
800020dc:	00052840 	sll	a1,a1,0x1
800020e0:	00451023 	subu	v0,v0,a1
800020e4:	00621021 	addu	v0,v1,v0
800020e8:	80450034 	lb	a1,52(v0)
800020ec:	00801025 	move	v0,a0
800020f0:	1100fff3 	beqz	t0,800020c0 <printk+0x518>
800020f4:	a0e50000 	sb	a1,0(a3)
800020f8:	10a00005 	beqz	a1,80002110 <printk+0x568>
800020fc:	3c029000 	lui	v0,0x9000
80002100:	a0450000 	sb	a1,0(v0)
80002104:	80e50001 	lb	a1,1(a3)
80002108:	14a0fffd 	bnez	a1,80002100 <printk+0x558>
8000210c:	24e70001 	addiu	a3,a3,1
80002110:	1000fee9 	b	80001cb8 <printk+0x110>
80002114:	82040001 	lb	a0,1(s0)
80002118:	2442511c 	addiu	v0,v0,20764
8000211c:	24030041 	li	v1,65
80002120:	3c059000 	lui	a1,0x9000
80002124:	a0a30000 	sb	v1,0(a1)
80002128:	80430001 	lb	v1,1(v0)
8000212c:	1460fffd 	bnez	v1,80002124 <printk+0x57c>
80002130:	24420001 	addiu	v0,v0,1
80002134:	2402000a 	li	v0,10
80002138:	a0a20000 	sb	v0,0(a1)
8000213c:	24020030 	li	v0,48
80002140:	a0a20000 	sb	v0,0(a1)
80002144:	24020078 	li	v0,120
80002148:	a0a20000 	sb	v0,0(a1)
8000214c:	8c870020 	lw	a3,32(a0)
80002150:	27a20041 	addiu	v0,sp,65
80002154:	a3a00041 	sb	zero,65(sp)
80002158:	27a30010 	addiu	v1,sp,16
8000215c:	30e5000f 	andi	a1,a3,0xf
80002160:	00652821 	addu	a1,v1,a1
80002164:	80a50034 	lb	a1,52(a1)
80002168:	2ce80010 	sltiu	t0,a3,16
8000216c:	2442ffff 	addiu	v0,v0,-1
80002170:	00073902 	srl	a3,a3,0x4
80002174:	1100fff9 	beqz	t0,8000215c <printk+0x5b4>
80002178:	a0450000 	sb	a1,0(v0)
8000217c:	10a00005 	beqz	a1,80002194 <printk+0x5ec>
80002180:	3c039000 	lui	v1,0x9000
80002184:	a0650000 	sb	a1,0(v1)
80002188:	80450001 	lb	a1,1(v0)
8000218c:	14a0fffd 	bnez	a1,80002184 <printk+0x5dc>
80002190:	24420001 	addiu	v0,v0,1
80002194:	3c029000 	lui	v0,0x9000
80002198:	2403000a 	li	v1,10
8000219c:	a0430000 	sb	v1,0(v0)
800021a0:	1000ff19 	b	80001e08 <printk+0x260>
800021a4:	8c850024 	lw	a1,36(a0)
800021a8:	afa30054 	sw	v1,84(sp)
800021ac:	3c059000 	lui	a1,0x9000
800021b0:	24020030 	li	v0,48
800021b4:	24030078 	li	v1,120
800021b8:	a0a20000 	sb	v0,0(a1)
800021bc:	00803825 	move	a3,a0
800021c0:	a0a30000 	sb	v1,0(a1)
800021c4:	27a20041 	addiu	v0,sp,65
800021c8:	27a30010 	addiu	v1,sp,16
800021cc:	a3a00041 	sb	zero,65(sp)
800021d0:	30e5000f 	andi	a1,a3,0xf
800021d4:	00652821 	addu	a1,v1,a1
800021d8:	80a50034 	lb	a1,52(a1)
800021dc:	2ce80010 	sltiu	t0,a3,16
800021e0:	2442ffff 	addiu	v0,v0,-1
800021e4:	00073902 	srl	a3,a3,0x4
800021e8:	1100fff9 	beqz	t0,800021d0 <printk+0x628>
800021ec:	a0450000 	sb	a1,0(v0)
800021f0:	10a00005 	beqz	a1,80002208 <printk+0x660>
800021f4:	3c079000 	lui	a3,0x9000
800021f8:	a0e50000 	sb	a1,0(a3)
800021fc:	80450001 	lb	a1,1(v0)
80002200:	14a0fffd 	bnez	a1,800021f8 <printk+0x650>
80002204:	24420001 	addiu	v0,v0,1
80002208:	8c890004 	lw	t1,4(a0)
8000220c:	00002825 	move	a1,zero
80002210:	1089004b 	beq	a0,t1,80002340 <printk+0x798>
80002214:	01201025 	move	v0,t1
80002218:	8c420004 	lw	v0,4(v0)
8000221c:	00a04025 	move	t0,a1
80002220:	1444fffd 	bne	v0,a0,80002218 <printk+0x670>
80002224:	24a50001 	addiu	a1,a1,1
80002228:	10a00045 	beqz	a1,80002340 <printk+0x798>
8000222c:	2404005b 	li	a0,91
80002230:	3c029000 	lui	v0,0x9000
80002234:	3c0bcccc 	lui	t3,0xcccc
80002238:	a0440000 	sb	a0,0(v0)
8000223c:	27a70041 	addiu	a3,sp,65
80002240:	a3a00041 	sb	zero,65(sp)
80002244:	356bcccd 	ori	t3,t3,0xcccd
80002248:	00ab0019 	multu	a1,t3
8000224c:	00002010 	mfhi	a0
80002250:	24e7ffff 	addiu	a3,a3,-1
80002254:	2caa000a 	sltiu	t2,a1,10
80002258:	000420c2 	srl	a0,a0,0x3
8000225c:	00041080 	sll	v0,a0,0x2
80002260:	00441021 	addu	v0,v0,a0
80002264:	00021040 	sll	v0,v0,0x1
80002268:	00a21023 	subu	v0,a1,v0
8000226c:	00621021 	addu	v0,v1,v0
80002270:	80420034 	lb	v0,52(v0)
80002274:	00802825 	move	a1,a0
80002278:	1140fff3 	beqz	t2,80002248 <printk+0x6a0>
8000227c:	a0e20000 	sb	v0,0(a3)
80002280:	10400005 	beqz	v0,80002298 <printk+0x6f0>
80002284:	3c049000 	lui	a0,0x9000
80002288:	a0820000 	sb	v0,0(a0)
8000228c:	80e20001 	lb	v0,1(a3)
80002290:	1440fffd 	bnez	v0,80002288 <printk+0x6e0>
80002294:	24e70001 	addiu	a3,a3,1
80002298:	3c029000 	lui	v0,0x9000
8000229c:	2404003a 	li	a0,58
800022a0:	a0440000 	sb	a0,0(v0)
800022a4:	24040020 	li	a0,32
800022a8:	00005825 	move	t3,zero
800022ac:	a0440000 	sb	a0,0(v0)
800022b0:	3c0a9000 	lui	t2,0x9000
800022b4:	240d0030 	li	t5,48
800022b8:	240c0078 	li	t4,120
800022bc:	240e002d 	li	t6,45
800022c0:	a14d0000 	sb	t5,0(t2)
800022c4:	01202825 	move	a1,t1
800022c8:	a14c0000 	sb	t4,0(t2)
800022cc:	27a20041 	addiu	v0,sp,65
800022d0:	a3a00041 	sb	zero,65(sp)
800022d4:	30a4000f 	andi	a0,a1,0xf
800022d8:	00642021 	addu	a0,v1,a0
800022dc:	80840034 	lb	a0,52(a0)
800022e0:	2ca70010 	sltiu	a3,a1,16
800022e4:	2442ffff 	addiu	v0,v0,-1
800022e8:	00052902 	srl	a1,a1,0x4
800022ec:	10e0fff9 	beqz	a3,800022d4 <printk+0x72c>
800022f0:	a0440000 	sb	a0,0(v0)
800022f4:	1080001c 	beqz	a0,80002368 <printk+0x7c0>
800022f8:	00000000 	nop
800022fc:	a1440000 	sb	a0,0(t2)
80002300:	80440001 	lb	a0,1(v0)
80002304:	1480fffd 	bnez	a0,800022fc <printk+0x754>
80002308:	24420001 	addiu	v0,v0,1
8000230c:	51680008 	beql	t3,t0,80002330 <printk+0x788>
80002310:	3c029000 	lui	v0,0x9000
80002314:	a14e0000 	sb	t6,0(t2)
80002318:	8d290004 	lw	t1,4(t1)
8000231c:	11680003 	beq	t3,t0,8000232c <printk+0x784>
80002320:	25620001 	addiu	v0,t3,1
80002324:	1000ffe6 	b	800022c0 <printk+0x718>
80002328:	00405825 	move	t3,v0
8000232c:	3c029000 	lui	v0,0x9000
80002330:	2403005d 	li	v1,93
80002334:	a0430000 	sb	v1,0(v0)
80002338:	1000fe6c 	b	80001cec <printk+0x144>
8000233c:	82040002 	lb	a0,2(s0)
80002340:	3c028000 	lui	v0,0x8000
80002344:	244250fc 	addiu	v0,v0,20732
80002348:	2403005b 	li	v1,91
8000234c:	3c049000 	lui	a0,0x9000
80002350:	a0830000 	sb	v1,0(a0)
80002354:	80430001 	lb	v1,1(v0)
80002358:	1460fffd 	bnez	v1,80002350 <printk+0x7a8>
8000235c:	24420001 	addiu	v0,v0,1
80002360:	1000fe62 	b	80001cec <printk+0x144>
80002364:	82040002 	lb	a0,2(s0)
80002368:	5168ffec 	beql	t3,t0,8000231c <printk+0x774>
8000236c:	8d290004 	lw	t1,4(t1)
80002370:	1000ffe8 	b	80002314 <printk+0x76c>
80002374:	00000000 	nop

80002378 <print_string>:
80002378:	80820000 	lb	v0,0(a0)
8000237c:	10400006 	beqz	v0,80002398 <print_string+0x20>
80002380:	00000000 	nop
80002384:	3c039000 	lui	v1,0x9000
80002388:	a0620000 	sb	v0,0(v1)
8000238c:	80820001 	lb	v0,1(a0)
80002390:	1440fffd 	bnez	v0,80002388 <print_string+0x10>
80002394:	24840001 	addiu	a0,a0,1
80002398:	03e00008 	jr	ra
8000239c:	00000000 	nop

800023a0 <puts>:
800023a0:	80820000 	lb	v0,0(a0)
800023a4:	10400005 	beqz	v0,800023bc <puts+0x1c>
800023a8:	3c039000 	lui	v1,0x9000
800023ac:	a0620000 	sb	v0,0(v1)
800023b0:	80820001 	lb	v0,1(a0)
800023b4:	1440fffd 	bnez	v0,800023ac <puts+0xc>
800023b8:	24840001 	addiu	a0,a0,1
800023bc:	3c029000 	lui	v0,0x9000
800023c0:	2403000a 	li	v1,10
800023c4:	a0430000 	sb	v1,0(v0)
800023c8:	03e00008 	jr	ra
800023cc:	00000000 	nop

800023d0 <ull_div_and_mod.part.0>:
800023d0:	8faf0010 	lw	t7,16(sp)
800023d4:	240b0040 	li	t3,64
800023d8:	00001825 	move	v1,zero
800023dc:	00004825 	move	t1,zero
800023e0:	00001025 	move	v0,zero
800023e4:	00006025 	move	t4,zero
800023e8:	000357c2 	srl	t2,v1,0x1f
800023ec:	00094040 	sll	t0,t1,0x1
800023f0:	01484025 	or	t0,t2,t0
800023f4:	00026fc2 	srl	t5,v0,0x1f
800023f8:	000c5040 	sll	t2,t4,0x1
800023fc:	01aa5025 	or	t2,t5,t2
80002400:	000567c2 	srl	t4,a1,0x1f
80002404:	00031840 	sll	v1,v1,0x1
80002408:	0107702b 	sltu	t6,t0,a3
8000240c:	006c1825 	or	v1,v1,t4
80002410:	01004825 	move	t1,t0
80002414:	00046fc2 	srl	t5,a0,0x1f
80002418:	00052840 	sll	a1,a1,0x1
8000241c:	256bffff 	addiu	t3,t3,-1
80002420:	00021040 	sll	v0,v0,0x1
80002424:	15c0000b 	bnez	t6,80002454 <ull_div_and_mod.part.0+0x84>
80002428:	01406025 	move	t4,t2
8000242c:	00667023 	subu	t6,v1,a2
80002430:	006ec02b 	sltu	t8,v1,t6
80002434:	01074023 	subu	t0,t0,a3
80002438:	14e90003 	bne	a3,t1,80002448 <ull_div_and_mod.part.0+0x78>
8000243c:	0066c82b 	sltu	t9,v1,a2
80002440:	57200005 	bnezl	t9,80002458 <ull_div_and_mod.part.0+0x88>
80002444:	00042040 	sll	a0,a0,0x1
80002448:	01c01825 	move	v1,t6
8000244c:	01184823 	subu	t1,t0,t8
80002450:	34420001 	ori	v0,v0,0x1
80002454:	00042040 	sll	a0,a0,0x1
80002458:	1560ffe3 	bnez	t3,800023e8 <ull_div_and_mod.part.0+0x18>
8000245c:	01a52825 	or	a1,t5,a1
80002460:	ade30000 	sw	v1,0(t7)
80002464:	ade90004 	sw	t1,4(t7)
80002468:	03e00008 	jr	ra
8000246c:	01401825 	move	v1,t2

80002470 <__udivdi3>:
80002470:	00c71025 	or	v0,a2,a3
80002474:	10400015 	beqz	v0,800024cc <__udivdi3+0x5c>
80002478:	00c01025 	move	v0,a2
8000247c:	00a7102b 	sltu	v0,a1,a3
80002480:	5440000f 	bnezl	v0,800024c0 <__udivdi3+0x50>
80002484:	00003825 	move	a3,zero
80002488:	10e5000a 	beq	a3,a1,800024b4 <__udivdi3+0x44>
8000248c:	0086102b 	sltu	v0,a0,a2
80002490:	27bdffd8 	addiu	sp,sp,-40
80002494:	27a20018 	addiu	v0,sp,24
80002498:	afa20010 	sw	v0,16(sp)
8000249c:	afbf0024 	sw	ra,36(sp)
800024a0:	0c0008f4 	jal	800023d0 <ull_div_and_mod.part.0>
800024a4:	00000000 	nop
800024a8:	8fbf0024 	lw	ra,36(sp)
800024ac:	03e00008 	jr	ra
800024b0:	27bd0028 	addiu	sp,sp,40
800024b4:	1040fff6 	beqz	v0,80002490 <__udivdi3+0x20>
800024b8:	00000000 	nop
800024bc:	00003825 	move	a3,zero
800024c0:	00001025 	move	v0,zero
800024c4:	03e00008 	jr	ra
800024c8:	00e01825 	move	v1,a3
800024cc:	03e00008 	jr	ra
800024d0:	00e01825 	move	v1,a3

800024d4 <__umoddi3>:
800024d4:	00c71025 	or	v0,a2,a3
800024d8:	10400018 	beqz	v0,8000253c <__umoddi3+0x68>
800024dc:	00c01025 	move	v0,a2
800024e0:	00a7102b 	sltu	v0,a1,a3
800024e4:	54400012 	bnezl	v0,80002530 <__umoddi3+0x5c>
800024e8:	00a03825 	move	a3,a1
800024ec:	10e5000d 	beq	a3,a1,80002524 <__umoddi3+0x50>
800024f0:	0086102b 	sltu	v0,a0,a2
800024f4:	27bdffd8 	addiu	sp,sp,-40
800024f8:	27a20018 	addiu	v0,sp,24
800024fc:	afa20010 	sw	v0,16(sp)
80002500:	afbf0024 	sw	ra,36(sp)
80002504:	0c0008f4 	jal	800023d0 <ull_div_and_mod.part.0>
80002508:	00000000 	nop
8000250c:	8fa7001c 	lw	a3,28(sp)
80002510:	8fbf0024 	lw	ra,36(sp)
80002514:	8fa20018 	lw	v0,24(sp)
80002518:	00e01825 	move	v1,a3
8000251c:	03e00008 	jr	ra
80002520:	27bd0028 	addiu	sp,sp,40
80002524:	1040fff3 	beqz	v0,800024f4 <__umoddi3+0x20>
80002528:	00000000 	nop
8000252c:	00a03825 	move	a3,a1
80002530:	00801025 	move	v0,a0
80002534:	03e00008 	jr	ra
80002538:	00e01825 	move	v1,a3
8000253c:	03e00008 	jr	ra
80002540:	00e01825 	move	v1,a3

80002544 <__divdi3>:
80002544:	27bdffd0 	addiu	sp,sp,-48
80002548:	00c01025 	move	v0,a2
8000254c:	afb10028 	sw	s1,40(sp)
80002550:	afb00024 	sw	s0,36(sp)
80002554:	afbf002c 	sw	ra,44(sp)
80002558:	00a08825 	move	s1,a1
8000255c:	04a10005 	bgez	a1,80002574 <__divdi3+0x30>
80002560:	00e08025 	move	s0,a3
80002564:	0004282b 	sltu	a1,zero,a0
80002568:	00111823 	negu	v1,s1
8000256c:	00042023 	negu	a0,a0
80002570:	00652823 	subu	a1,v1,a1
80002574:	06000009 	bltz	s0,8000259c <__divdi3+0x58>
80002578:	00501825 	or	v1,v0,s0
8000257c:	00403025 	move	a2,v0
80002580:	1460000a 	bnez	v1,800025ac <__divdi3+0x68>
80002584:	02003825 	move	a3,s0
80002588:	06210019 	bgez	s1,800025f0 <__divdi3+0xac>
8000258c:	8fbf002c 	lw	ra,44(sp)
80002590:	00001025 	move	v0,zero
80002594:	10000011 	b	800025dc <__divdi3+0x98>
80002598:	00003825 	move	a3,zero
8000259c:	0002182b 	sltu	v1,zero,v0
800025a0:	00103823 	negu	a3,s0
800025a4:	00023023 	negu	a2,v0
800025a8:	00e33823 	subu	a3,a3,v1
800025ac:	00a7102b 	sltu	v0,a1,a3
800025b0:	14400017 	bnez	v0,80002610 <__divdi3+0xcc>
800025b4:	00001025 	move	v0,zero
800025b8:	10e50012 	beq	a3,a1,80002604 <__divdi3+0xc0>
800025bc:	0086102b 	sltu	v0,a0,a2
800025c0:	27a20018 	addiu	v0,sp,24
800025c4:	0c0008f4 	jal	800023d0 <ull_div_and_mod.part.0>
800025c8:	afa20010 	sw	v0,16(sp)
800025cc:	06200012 	bltz	s1,80002618 <__divdi3+0xd4>
800025d0:	00603825 	move	a3,v1
800025d4:	06010006 	bgez	s0,800025f0 <__divdi3+0xac>
800025d8:	8fbf002c 	lw	ra,44(sp)
800025dc:	0002182b 	sltu	v1,zero,v0
800025e0:	00073823 	negu	a3,a3
800025e4:	00021023 	negu	v0,v0
800025e8:	00e33823 	subu	a3,a3,v1
800025ec:	8fbf002c 	lw	ra,44(sp)
800025f0:	8fb10028 	lw	s1,40(sp)
800025f4:	8fb00024 	lw	s0,36(sp)
800025f8:	00e01825 	move	v1,a3
800025fc:	03e00008 	jr	ra
80002600:	27bd0030 	addiu	sp,sp,48
80002604:	1040ffef 	beqz	v0,800025c4 <__divdi3+0x80>
80002608:	27a20018 	addiu	v0,sp,24
8000260c:	00001025 	move	v0,zero
80002610:	0621fff0 	bgez	s1,800025d4 <__divdi3+0x90>
80002614:	00003825 	move	a3,zero
80002618:	0601fff0 	bgez	s0,800025dc <__divdi3+0x98>
8000261c:	8fbf002c 	lw	ra,44(sp)
80002620:	8fb10028 	lw	s1,40(sp)
80002624:	8fb00024 	lw	s0,36(sp)
80002628:	00e01825 	move	v1,a3
8000262c:	03e00008 	jr	ra
80002630:	27bd0030 	addiu	sp,sp,48

80002634 <__moddi3>:
80002634:	27bdffd8 	addiu	sp,sp,-40
80002638:	afb00020 	sw	s0,32(sp)
8000263c:	afbf0024 	sw	ra,36(sp)
80002640:	04a10005 	bgez	a1,80002658 <__moddi3+0x24>
80002644:	00a08025 	move	s0,a1
80002648:	0004282b 	sltu	a1,zero,a0
8000264c:	00101023 	negu	v0,s0
80002650:	00042023 	negu	a0,a0
80002654:	00452823 	subu	a1,v0,a1
80002658:	04e00010 	bltz	a3,8000269c <__moddi3+0x68>
8000265c:	00c71025 	or	v0,a2,a3
80002660:	54400013 	bnezl	v0,800026b0 <__moddi3+0x7c>
80002664:	00a7102b 	sltu	v0,a1,a3
80002668:	00002025 	move	a0,zero
8000266c:	00002825 	move	a1,zero
80002670:	06010005 	bgez	s0,80002688 <__moddi3+0x54>
80002674:	00801025 	move	v0,a0
80002678:	0004182b 	sltu	v1,zero,a0
8000267c:	00052823 	negu	a1,a1
80002680:	00041023 	negu	v0,a0
80002684:	00a32823 	subu	a1,a1,v1
80002688:	8fbf0024 	lw	ra,36(sp)
8000268c:	8fb00020 	lw	s0,32(sp)
80002690:	00a01825 	move	v1,a1
80002694:	03e00008 	jr	ra
80002698:	27bd0028 	addiu	sp,sp,40
8000269c:	0006102b 	sltu	v0,zero,a2
800026a0:	00073823 	negu	a3,a3
800026a4:	00063023 	negu	a2,a2
800026a8:	00e23823 	subu	a3,a3,v0
800026ac:	00a7102b 	sltu	v0,a1,a3
800026b0:	1440ffef 	bnez	v0,80002670 <__moddi3+0x3c>
800026b4:	00000000 	nop
800026b8:	50e50007 	beql	a3,a1,800026d8 <__moddi3+0xa4>
800026bc:	0086102b 	sltu	v0,a0,a2
800026c0:	27a20018 	addiu	v0,sp,24
800026c4:	0c0008f4 	jal	800023d0 <ull_div_and_mod.part.0>
800026c8:	afa20010 	sw	v0,16(sp)
800026cc:	8fa40018 	lw	a0,24(sp)
800026d0:	1000ffe7 	b	80002670 <__moddi3+0x3c>
800026d4:	8fa5001c 	lw	a1,28(sp)
800026d8:	5040fffa 	beqzl	v0,800026c4 <__moddi3+0x90>
800026dc:	27a20018 	addiu	v0,sp,24
800026e0:	1000ffe3 	b	80002670 <__moddi3+0x3c>
800026e4:	00000000 	nop
	...

800026f0 <as_init>:
800026f0:	27bdffe8 	addiu	sp,sp,-24
800026f4:	afbf0014 	sw	ra,20(sp)
800026f8:	0c0005a5 	jal	80001694 <interrupts_disable>
800026fc:	00000000 	nop
80002700:	8fbf0014 	lw	ra,20(sp)
80002704:	00402025 	move	a0,v0
80002708:	3c028001 	lui	v0,0x8001
8000270c:	ac4092bc 	sw	zero,-27972(v0)
80002710:	24030001 	li	v1,1
80002714:	3c028001 	lui	v0,0x8001
80002718:	27bd0018 	addiu	sp,sp,24
8000271c:	080005ad 	j	800016b4 <interrupts_restore>
80002720:	ac4392c0 	sw	v1,-27968(v0)

80002724 <print_as_container>:
80002724:	27bdffd8 	addiu	sp,sp,-40
80002728:	afb2001c 	sw	s2,28(sp)
8000272c:	3c128001 	lui	s2,0x8001
80002730:	26529064 	addiu	s2,s2,-28572
80002734:	8e420258 	lw	v0,600(s2)
80002738:	afbf0024 	sw	ra,36(sp)
8000273c:	afb30020 	sw	s3,32(sp)
80002740:	afb10018 	sw	s1,24(sp)
80002744:	1040000f 	beqz	v0,80002784 <print_as_container+0x60>
80002748:	afb00014 	sw	s0,20(sp)
8000274c:	3c138000 	lui	s3,0x8000
80002750:	02408025 	move	s0,s2
80002754:	00008825 	move	s1,zero
80002758:	26735168 	addiu	s3,s3,20840
8000275c:	8e070004 	lw	a3,4(s0)
80002760:	8e060000 	lw	a2,0(s0)
80002764:	8e050008 	lw	a1,8(s0)
80002768:	02602025 	move	a0,s3
8000276c:	0c0006ea 	jal	80001ba8 <printk>
80002770:	26310001 	addiu	s1,s1,1
80002774:	8e420258 	lw	v0,600(s2)
80002778:	0222102b 	sltu	v0,s1,v0
8000277c:	1440fff7 	bnez	v0,8000275c <print_as_container+0x38>
80002780:	2610000c 	addiu	s0,s0,12
80002784:	8fbf0024 	lw	ra,36(sp)
80002788:	8fb30020 	lw	s3,32(sp)
8000278c:	8fb2001c 	lw	s2,28(sp)
80002790:	8fb10018 	lw	s1,24(sp)
80002794:	8fb00014 	lw	s0,20(sp)
80002798:	03e00008 	jr	ra
8000279c:	27bd0028 	addiu	sp,sp,40

800027a0 <as_create>:
800027a0:	27bdffd8 	addiu	sp,sp,-40
800027a4:	afb00018 	sw	s0,24(sp)
800027a8:	3c108001 	lui	s0,0x8001
800027ac:	26109064 	addiu	s0,s0,-28572
800027b0:	afb20020 	sw	s2,32(sp)
800027b4:	afa40028 	sw	a0,40(sp)
800027b8:	afbf0024 	sw	ra,36(sp)
800027bc:	0c0005a5 	jal	80001694 <interrupts_disable>
800027c0:	afb1001c 	sw	s1,28(sp)
800027c4:	8e050258 	lw	a1,600(s0)
800027c8:	24030032 	li	v1,50
800027cc:	8fa40028 	lw	a0,40(sp)
800027d0:	10a30027 	beq	a1,v1,80002870 <as_create+0xd0>
800027d4:	00409025 	move	s2,v0
800027d8:	0c000aaf 	jal	80002abc <allign_to_4k>
800027dc:	00000000 	nop
800027e0:	00022302 	srl	a0,v0,0xc
800027e4:	27a50010 	addiu	a1,sp,16
800027e8:	0c000ab3 	jal	80002acc <frame_alloc>
800027ec:	00408825 	move	s1,v0
800027f0:	24030002 	li	v1,2
800027f4:	10430025 	beq	v0,v1,8000288c <as_create+0xec>
800027f8:	3c058001 	lui	a1,0x8001
800027fc:	8e040258 	lw	a0,600(s0)
80002800:	8ca292c0 	lw	v0,-27968(a1)
80002804:	00041840 	sll	v1,a0,0x1
80002808:	00641821 	addu	v1,v1,a0
8000280c:	00031880 	sll	v1,v1,0x2
80002810:	00701821 	addu	v1,v1,s0
80002814:	24460001 	addiu	a2,v0,1
80002818:	ac620004 	sw	v0,4(v1)
8000281c:	8fa20010 	lw	v0,16(sp)
80002820:	24840001 	addiu	a0,a0,1
80002824:	ac710000 	sw	s1,0(v1)
80002828:	ac620008 	sw	v0,8(v1)
8000282c:	ae040258 	sw	a0,600(s0)
80002830:	0c0009c9 	jal	80002724 <print_as_container>
80002834:	aca692c0 	sw	a2,-27968(a1)
80002838:	0c0005ad 	jal	800016b4 <interrupts_restore>
8000283c:	02402025 	move	a0,s2
80002840:	8e020258 	lw	v0,600(s0)
80002844:	2443ffff 	addiu	v1,v0,-1
80002848:	00031040 	sll	v0,v1,0x1
8000284c:	00431021 	addu	v0,v0,v1
80002850:	00021080 	sll	v0,v0,0x2
80002854:	02021021 	addu	v0,s0,v0
80002858:	8fbf0024 	lw	ra,36(sp)
8000285c:	8fb20020 	lw	s2,32(sp)
80002860:	8fb1001c 	lw	s1,28(sp)
80002864:	8fb00018 	lw	s0,24(sp)
80002868:	03e00008 	jr	ra
8000286c:	27bd0028 	addiu	sp,sp,40
80002870:	3c048000 	lui	a0,0x8000
80002874:	0c0006ea 	jal	80001ba8 <printk>
80002878:	2484519c 	addiu	a0,a0,20892
8000287c:	0c0005ad 	jal	800016b4 <interrupts_restore>
80002880:	02402025 	move	a0,s2
80002884:	1000fff4 	b	80002858 <as_create+0xb8>
80002888:	00001025 	move	v0,zero
8000288c:	0c000a91 	jal	80002a44 <print_frame_array>
80002890:	00000000 	nop
80002894:	3c048000 	lui	a0,0x8000
80002898:	0c0006ea 	jal	80001ba8 <printk>
8000289c:	248451b0 	addiu	a0,a0,20912
800028a0:	0c0005ad 	jal	800016b4 <interrupts_restore>
800028a4:	02402025 	move	a0,s2
800028a8:	1000ffeb 	b	80002858 <as_create+0xb8>
800028ac:	00001025 	move	v0,zero

800028b0 <as_get_size>:
800028b0:	03e00008 	jr	ra
800028b4:	8c820000 	lw	v0,0(a0)

800028b8 <as_destroy>:
800028b8:	27bdffe8 	addiu	sp,sp,-24
800028bc:	afb00010 	sw	s0,16(sp)
800028c0:	afbf0014 	sw	ra,20(sp)
800028c4:	0c0005a5 	jal	80001694 <interrupts_disable>
800028c8:	00808025 	move	s0,a0
800028cc:	3c088001 	lui	t0,0x8001
800028d0:	25089064 	addiu	t0,t0,-28572
800028d4:	8d070258 	lw	a3,600(t0)
800028d8:	00402025 	move	a0,v0
800028dc:	2ce20002 	sltiu	v0,a3,2
800028e0:	1440000d 	bnez	v0,80002918 <as_destroy+0x60>
800028e4:	3c038001 	lui	v1,0x8001
800028e8:	24639070 	addiu	v1,v1,-28560
800028ec:	1203000e 	beq	s0,v1,80002928 <as_destroy+0x70>
800028f0:	24030001 	li	v1,1
800028f4:	3c058001 	lui	a1,0x8001
800028f8:	10000004 	b	8000290c <as_destroy+0x54>
800028fc:	24a5907c 	addiu	a1,a1,-28548
80002900:	12050009 	beq	s0,a1,80002928 <as_destroy+0x70>
80002904:	24a6000c 	addiu	a2,a1,12
80002908:	00c02825 	move	a1,a2
8000290c:	24630001 	addiu	v1,v1,1
80002910:	1467fffb 	bne	v1,a3,80002900 <as_destroy+0x48>
80002914:	00000000 	nop
80002918:	8fbf0014 	lw	ra,20(sp)
8000291c:	8fb00010 	lw	s0,16(sp)
80002920:	080005ad 	j	800016b4 <interrupts_restore>
80002924:	27bd0018 	addiu	sp,sp,24
80002928:	00031040 	sll	v0,v1,0x1
8000292c:	00431021 	addu	v0,v0,v1
80002930:	00021080 	sll	v0,v0,0x2
80002934:	24e7ffff 	addiu	a3,a3,-1
80002938:	01021021 	addu	v0,t0,v0
8000293c:	0067182b 	sltu	v1,v1,a3
80002940:	10600009 	beqz	v1,80002968 <as_destroy+0xb0>
80002944:	8c450008 	lw	a1,8(v0)
80002948:	8c45000c 	lw	a1,12(v0)
8000294c:	8c440010 	lw	a0,16(v0)
80002950:	8c430014 	lw	v1,20(v0)
80002954:	ac450000 	sw	a1,0(v0)
80002958:	ac440004 	sw	a0,4(v0)
8000295c:	ac430008 	sw	v1,8(v0)
80002960:	1000fff9 	b	80002948 <as_destroy+0x90>
80002964:	2442000c 	addiu	v0,v0,12
80002968:	8c440000 	lw	a0,0(v0)
8000296c:	8fbf0014 	lw	ra,20(sp)
80002970:	8fb00010 	lw	s0,16(sp)
80002974:	00042302 	srl	a0,a0,0xc
80002978:	27bd0018 	addiu	sp,sp,24
8000297c:	08000b7b 	j	80002dec <frame_free>
80002980:	ad070258 	sw	a3,600(t0)

80002984 <as_get_mapping>:
80002984:	10a0000a 	beqz	a1,800029b0 <as_get_mapping+0x2c>
80002988:	00000000 	nop
8000298c:	8c820000 	lw	v0,0(a0)
80002990:	00a2102b 	sltu	v0,a1,v0
80002994:	10400006 	beqz	v0,800029b0 <as_get_mapping+0x2c>
80002998:	00000000 	nop
8000299c:	8c830008 	lw	v1,8(a0)
800029a0:	00001025 	move	v0,zero
800029a4:	00652821 	addu	a1,v1,a1
800029a8:	03e00008 	jr	ra
800029ac:	acc50000 	sw	a1,0(a2)
800029b0:	03e00008 	jr	ra
800029b4:	24020005 	li	v0,5

800029b8 <find_as>:
800029b8:	3c028001 	lui	v0,0x8001
800029bc:	24429064 	addiu	v0,v0,-28572
800029c0:	8c470258 	lw	a3,600(v0)
800029c4:	2ce30002 	sltiu	v1,a3,2
800029c8:	1460000f 	bnez	v1,80002a08 <find_as+0x50>
800029cc:	3c038001 	lui	v1,0x8001
800029d0:	24639074 	addiu	v1,v1,-28556
800029d4:	10000004 	b	800029e8 <find_as+0x30>
800029d8:	24050001 	li	a1,1
800029dc:	24a50001 	addiu	a1,a1,1
800029e0:	10a70009 	beq	a1,a3,80002a08 <find_as+0x50>
800029e4:	00000000 	nop
800029e8:	8c660000 	lw	a2,0(v1)
800029ec:	14c4fffb 	bne	a2,a0,800029dc <find_as+0x24>
800029f0:	2463000c 	addiu	v1,v1,12
800029f4:	00051840 	sll	v1,a1,0x1
800029f8:	00652821 	addu	a1,v1,a1
800029fc:	00052880 	sll	a1,a1,0x2
80002a00:	03e00008 	jr	ra
80002a04:	00451021 	addu	v0,v0,a1
80002a08:	03e00008 	jr	ra
80002a0c:	00001025 	move	v0,zero

80002a10 <frame_init>:
80002a10:	27bdffe8 	addiu	sp,sp,-24
80002a14:	afbf0014 	sw	ra,20(sp)
80002a18:	0c0005a5 	jal	80001694 <interrupts_disable>
80002a1c:	00000000 	nop
80002a20:	8fbf0014 	lw	ra,20(sp)
80002a24:	3c038001 	lui	v1,0x8001
80002a28:	24658d34 	addiu	a1,v1,-29388
80002a2c:	00402025 	move	a0,v0
80002a30:	24020001 	li	v0,1
80002a34:	aca20320 	sw	v0,800(a1)
80002a38:	27bd0018 	addiu	sp,sp,24
80002a3c:	080005ad 	j	800016b4 <interrupts_restore>
80002a40:	ac608d34 	sw	zero,-29388(v1)

80002a44 <print_frame_array>:
80002a44:	27bdffd8 	addiu	sp,sp,-40
80002a48:	afb2001c 	sw	s2,28(sp)
80002a4c:	3c128001 	lui	s2,0x8001
80002a50:	26528d34 	addiu	s2,s2,-29388
80002a54:	8e420320 	lw	v0,800(s2)
80002a58:	afbf0024 	sw	ra,36(sp)
80002a5c:	afb30020 	sw	s3,32(sp)
80002a60:	afb10018 	sw	s1,24(sp)
80002a64:	1040000e 	beqz	v0,80002aa0 <print_frame_array+0x5c>
80002a68:	afb00014 	sw	s0,20(sp)
80002a6c:	3c138000 	lui	s3,0x8000
80002a70:	02408825 	move	s1,s2
80002a74:	00008025 	move	s0,zero
80002a78:	267351c4 	addiu	s3,s3,20932
80002a7c:	8e260000 	lw	a2,0(s1)
80002a80:	02002825 	move	a1,s0
80002a84:	0c0006ea 	jal	80001ba8 <printk>
80002a88:	02602025 	move	a0,s3
80002a8c:	8e420320 	lw	v0,800(s2)
80002a90:	26100001 	addiu	s0,s0,1
80002a94:	0202102b 	sltu	v0,s0,v0
80002a98:	1440fff8 	bnez	v0,80002a7c <print_frame_array+0x38>
80002a9c:	26310004 	addiu	s1,s1,4
80002aa0:	8fbf0024 	lw	ra,36(sp)
80002aa4:	8fb30020 	lw	s3,32(sp)
80002aa8:	8fb2001c 	lw	s2,28(sp)
80002aac:	8fb10018 	lw	s1,24(sp)
80002ab0:	8fb00014 	lw	s0,20(sp)
80002ab4:	03e00008 	jr	ra
80002ab8:	27bd0028 	addiu	sp,sp,40

80002abc <allign_to_4k>:
80002abc:	2402f000 	li	v0,-4096
80002ac0:	00821024 	and	v0,a0,v0
80002ac4:	03e00008 	jr	ra
80002ac8:	24421000 	addiu	v0,v0,4096

80002acc <frame_alloc>:
80002acc:	27bdffd0 	addiu	sp,sp,-48
80002ad0:	afb40020 	sw	s4,32(sp)
80002ad4:	3c148001 	lui	s4,0x8001
80002ad8:	26948d34 	addiu	s4,s4,-29388
80002adc:	afb50024 	sw	s5,36(sp)
80002ae0:	afb3001c 	sw	s3,28(sp)
80002ae4:	afb10014 	sw	s1,20(sp)
80002ae8:	00809825 	move	s3,a0
80002aec:	00a08825 	move	s1,a1
80002af0:	afbf002c 	sw	ra,44(sp)
80002af4:	afb60028 	sw	s6,40(sp)
80002af8:	afb20018 	sw	s2,24(sp)
80002afc:	0c0005a5 	jal	80001694 <interrupts_disable>
80002b00:	afb00010 	sw	s0,16(sp)
80002b04:	8e850320 	lw	a1,800(s4)
80002b08:	0040a825 	move	s5,v0
80002b0c:	00b31021 	addu	v0,a1,s3
80002b10:	2c4200c8 	sltiu	v0,v0,200
80002b14:	10400097 	beqz	v0,80002d74 <frame_alloc+0x2a8>
80002b18:	3c0b8000 	lui	t3,0x8000
80002b1c:	256b54ec 	addiu	t3,t3,21740
80002b20:	8d653840 	lw	a1,14400(t3)
80002b24:	00b31021 	addu	v0,a1,s3
80002b28:	2c420708 	sltiu	v0,v0,1800
80002b2c:	104000a0 	beqz	v0,80002db0 <frame_alloc+0x2e4>
80002b30:	3c168000 	lui	s6,0x8000
80002b34:	8ec654e8 	lw	a2,21736(s6)
80002b38:	00139300 	sll	s2,s3,0xc
80002b3c:	00d2102b 	sltu	v0,a2,s2
80002b40:	1440007d 	bnez	v0,80002d38 <frame_alloc+0x26c>
80002b44:	24aaffff 	addiu	t2,a1,-1
80002b48:	2d420002 	sltiu	v0,t2,2
80002b4c:	14400014 	bnez	v0,80002ba0 <frame_alloc+0xd4>
80002b50:	3c038000 	lui	v1,0x8000
80002b54:	8d68000c 	lw	t0,12(t3)
80002b58:	246354f4 	addiu	v1,v1,21748
80002b5c:	24070001 	li	a3,1
80002b60:	2405f000 	li	a1,-4096
80002b64:	8c700000 	lw	s0,0(v1)
80002b68:	00e02025 	move	a0,a3
80002b6c:	24e70001 	addiu	a3,a3,1
80002b70:	01108021 	addu	s0,t0,s0
80002b74:	8c68000c 	lw	t0,12(v1)
80002b78:	02058024 	and	s0,s0,a1
80002b7c:	26061000 	addiu	a2,s0,4096
80002b80:	01061023 	subu	v0,t0,a2
80002b84:	0106482b 	sltu	t1,t0,a2
80002b88:	15200003 	bnez	t1,80002b98 <frame_alloc+0xcc>
80002b8c:	0052102b 	sltu	v0,v0,s2
80002b90:	1040001c 	beqz	v0,80002c04 <frame_alloc+0x138>
80002b94:	00000000 	nop
80002b98:	14eafff2 	bne	a3,t2,80002b64 <frame_alloc+0x98>
80002b9c:	24630008 	addiu	v1,v1,8
80002ba0:	000a10c0 	sll	v0,t2,0x3
80002ba4:	01625821 	addu	t3,t3,v0
80002ba8:	8d620000 	lw	v0,0(t3)
80002bac:	8d700004 	lw	s0,4(t3)
80002bb0:	3c038001 	lui	v1,0x8001
80002bb4:	8c639058 	lw	v1,-28584(v1)
80002bb8:	02028021 	addu	s0,s0,v0
80002bbc:	02501021 	addu	v0,s2,s0
80002bc0:	0043102b 	sltu	v0,v0,v1
80002bc4:	14400053 	bnez	v0,80002d14 <frame_alloc+0x248>
80002bc8:	2402f000 	li	v0,-4096
80002bcc:	3c048000 	lui	a0,0x8000
80002bd0:	0c0006ea 	jal	80001ba8 <printk>
80002bd4:	24845244 	addiu	a0,a0,21060
80002bd8:	8fbf002c 	lw	ra,44(sp)
80002bdc:	8fb60028 	lw	s6,40(sp)
80002be0:	8fb50024 	lw	s5,36(sp)
80002be4:	8fb40020 	lw	s4,32(sp)
80002be8:	8fb3001c 	lw	s3,28(sp)
80002bec:	8fb20018 	lw	s2,24(sp)
80002bf0:	8fb10014 	lw	s1,20(sp)
80002bf4:	8fb00010 	lw	s0,16(sp)
80002bf8:	24020002 	li	v0,2
80002bfc:	03e00008 	jr	ra
80002c00:	27bd0030 	addiu	sp,sp,48
80002c04:	0c000bd0 	jal	80002f40 <kmalloc_at>
80002c08:	02602825 	move	a1,s3
80002c0c:	3c028000 	lui	v0,0x8000
80002c10:	24421000 	addiu	v0,v0,4096
80002c14:	02028021 	addu	s0,s0,v0
80002c18:	1200ffed 	beqz	s0,80002bd0 <frame_alloc+0x104>
80002c1c:	3c048000 	lui	a0,0x8000
80002c20:	8e840320 	lw	a0,800(s4)
80002c24:	2483ffff 	addiu	v1,a0,-1
80002c28:	2c620002 	sltiu	v0,v1,2
80002c2c:	1440001c 	bnez	v0,80002ca0 <frame_alloc+0x1d4>
80002c30:	00000000 	nop
80002c34:	3c068001 	lui	a2,0x8001
80002c38:	24c68d38 	addiu	a2,a2,-29384
80002c3c:	10000004 	b	80002c50 <frame_alloc+0x184>
80002c40:	24070001 	li	a3,1
80002c44:	24e70001 	addiu	a3,a3,1
80002c48:	10e30015 	beq	a3,v1,80002ca0 <frame_alloc+0x1d4>
80002c4c:	00000000 	nop
80002c50:	8cc20000 	lw	v0,0(a2)
80002c54:	0202102b 	sltu	v0,s0,v0
80002c58:	1040fffa 	beqz	v0,80002c44 <frame_alloc+0x178>
80002c5c:	24c60004 	addiu	a2,a2,4
80002c60:	24e8ffff 	addiu	t0,a3,-1
80002c64:	0103182b 	sltu	v1,t0,v1
80002c68:	1060000c 	beqz	v1,80002c9c <frame_alloc+0x1d0>
80002c6c:	00041880 	sll	v1,a0,0x2
80002c70:	2463fffc 	addiu	v1,v1,-4
80002c74:	2682fffc 	addiu	v0,s4,-4
80002c78:	00073880 	sll	a3,a3,0x2
80002c7c:	02831821 	addu	v1,s4,v1
80002c80:	00473821 	addu	a3,v0,a3
80002c84:	00132880 	sll	a1,s3,0x2
80002c88:	8c660000 	lw	a2,0(v1)
80002c8c:	00651021 	addu	v0,v1,a1
80002c90:	2463fffc 	addiu	v1,v1,-4
80002c94:	1467fffc 	bne	v1,a3,80002c88 <frame_alloc+0x1bc>
80002c98:	ac460000 	sw	a2,0(v0)
80002c9c:	01001825 	move	v1,t0
80002ca0:	12600009 	beqz	s3,80002cc8 <frame_alloc+0x1fc>
80002ca4:	24630001 	addiu	v1,v1,1
80002ca8:	00031880 	sll	v1,v1,0x2
80002cac:	02831821 	addu	v1,s4,v1
80002cb0:	02502821 	addu	a1,s2,s0
80002cb4:	02001025 	move	v0,s0
80002cb8:	ac620000 	sw	v0,0(v1)
80002cbc:	24421000 	addiu	v0,v0,4096
80002cc0:	14a2fffd 	bne	a1,v0,80002cb8 <frame_alloc+0x1ec>
80002cc4:	24630004 	addiu	v1,v1,4
80002cc8:	8ec254e8 	lw	v0,21736(s6)
80002ccc:	02642021 	addu	a0,s3,a0
80002cd0:	ae840320 	sw	a0,800(s4)
80002cd4:	00529023 	subu	s2,v0,s2
80002cd8:	aed254e8 	sw	s2,21736(s6)
80002cdc:	02a02025 	move	a0,s5
80002ce0:	0c0005ad 	jal	800016b4 <interrupts_restore>
80002ce4:	ae300000 	sw	s0,0(s1)
80002ce8:	8fbf002c 	lw	ra,44(sp)
80002cec:	8fb60028 	lw	s6,40(sp)
80002cf0:	8fb50024 	lw	s5,36(sp)
80002cf4:	8fb40020 	lw	s4,32(sp)
80002cf8:	8fb3001c 	lw	s3,28(sp)
80002cfc:	8fb20018 	lw	s2,24(sp)
80002d00:	8fb10014 	lw	s1,20(sp)
80002d04:	8fb00010 	lw	s0,16(sp)
80002d08:	00001025 	move	v0,zero
80002d0c:	03e00008 	jr	ra
80002d10:	27bd0030 	addiu	sp,sp,48
80002d14:	02028024 	and	s0,s0,v0
80002d18:	26061000 	addiu	a2,s0,4096
80002d1c:	02602825 	move	a1,s3
80002d20:	0c000bd0 	jal	80002f40 <kmalloc_at>
80002d24:	01402025 	move	a0,t2
80002d28:	3c028000 	lui	v0,0x8000
80002d2c:	24421000 	addiu	v0,v0,4096
80002d30:	1000ffb9 	b	80002c18 <frame_alloc+0x14c>
80002d34:	02028021 	addu	s0,s0,v0
80002d38:	3c048000 	lui	a0,0x8000
80002d3c:	02402825 	move	a1,s2
80002d40:	0c0006ea 	jal	80001ba8 <printk>
80002d44:	24845224 	addiu	a0,a0,21028
80002d48:	8fbf002c 	lw	ra,44(sp)
80002d4c:	8fb60028 	lw	s6,40(sp)
80002d50:	8fb50024 	lw	s5,36(sp)
80002d54:	8fb40020 	lw	s4,32(sp)
80002d58:	8fb3001c 	lw	s3,28(sp)
80002d5c:	8fb20018 	lw	s2,24(sp)
80002d60:	8fb10014 	lw	s1,20(sp)
80002d64:	8fb00010 	lw	s0,16(sp)
80002d68:	24020002 	li	v0,2
80002d6c:	03e00008 	jr	ra
80002d70:	27bd0030 	addiu	sp,sp,48
80002d74:	3c048000 	lui	a0,0x8000
80002d78:	02603025 	move	a2,s3
80002d7c:	0c0006ea 	jal	80001ba8 <printk>
80002d80:	248451e4 	addiu	a0,a0,20964
80002d84:	8fbf002c 	lw	ra,44(sp)
80002d88:	8fb60028 	lw	s6,40(sp)
80002d8c:	8fb50024 	lw	s5,36(sp)
80002d90:	8fb40020 	lw	s4,32(sp)
80002d94:	8fb3001c 	lw	s3,28(sp)
80002d98:	8fb20018 	lw	s2,24(sp)
80002d9c:	8fb10014 	lw	s1,20(sp)
80002da0:	8fb00010 	lw	s0,16(sp)
80002da4:	24020002 	li	v0,2
80002da8:	03e00008 	jr	ra
80002dac:	27bd0030 	addiu	sp,sp,48
80002db0:	3c048000 	lui	a0,0x8000
80002db4:	02603025 	move	a2,s3
80002db8:	0c0006ea 	jal	80001ba8 <printk>
80002dbc:	24845204 	addiu	a0,a0,20996
80002dc0:	8fbf002c 	lw	ra,44(sp)
80002dc4:	8fb60028 	lw	s6,40(sp)
80002dc8:	8fb50024 	lw	s5,36(sp)
80002dcc:	8fb40020 	lw	s4,32(sp)
80002dd0:	8fb3001c 	lw	s3,28(sp)
80002dd4:	8fb20018 	lw	s2,24(sp)
80002dd8:	8fb10014 	lw	s1,20(sp)
80002ddc:	8fb00010 	lw	s0,16(sp)
80002de0:	24020002 	li	v0,2
80002de4:	03e00008 	jr	ra
80002de8:	27bd0030 	addiu	sp,sp,48

80002dec <frame_free>:
80002dec:	27bdffd8 	addiu	sp,sp,-40
80002df0:	afb10014 	sw	s1,20(sp)
80002df4:	3c118001 	lui	s1,0x8001
80002df8:	26318d34 	addiu	s1,s1,-29388
80002dfc:	afb40020 	sw	s4,32(sp)
80002e00:	afb20018 	sw	s2,24(sp)
80002e04:	afb00010 	sw	s0,16(sp)
80002e08:	afbf0024 	sw	ra,36(sp)
80002e0c:	afb3001c 	sw	s3,28(sp)
80002e10:	00808025 	move	s0,a0
80002e14:	0c0005a5 	jal	80001694 <interrupts_disable>
80002e18:	00a0a025 	move	s4,a1
80002e1c:	8e270320 	lw	a3,800(s1)
80002e20:	00409025 	move	s2,v0
80002e24:	2ce20002 	sltiu	v0,a3,2
80002e28:	14400032 	bnez	v0,80002ef4 <frame_free+0x108>
80002e2c:	3c038001 	lui	v1,0x8001
80002e30:	24638d38 	addiu	v1,v1,-29384
80002e34:	10000004 	b	80002e48 <frame_free+0x5c>
80002e38:	24060001 	li	a2,1
80002e3c:	24c60001 	addiu	a2,a2,1
80002e40:	10c7002d 	beq	a2,a3,80002ef8 <frame_free+0x10c>
80002e44:	8fbf0024 	lw	ra,36(sp)
80002e48:	8c620000 	lw	v0,0(v1)
80002e4c:	1454fffb 	bne	v0,s4,80002e3c <frame_free+0x50>
80002e50:	24630004 	addiu	v1,v1,4
80002e54:	02061821 	addu	v1,s0,a2
80002e58:	00e3102b 	sltu	v0,a3,v1
80002e5c:	1440002e 	bnez	v0,80002f18 <frame_free+0x12c>
80002e60:	00f04023 	subu	t0,a3,s0
80002e64:	00c8302b 	sltu	a2,a2,t0
80002e68:	10c0000b 	beqz	a2,80002e98 <frame_free+0xac>
80002e6c:	00031880 	sll	v1,v1,0x2
80002e70:	00073880 	sll	a3,a3,0x2
80002e74:	00102823 	negu	a1,s0
80002e78:	02231821 	addu	v1,s1,v1
80002e7c:	02273821 	addu	a3,s1,a3
80002e80:	00052880 	sll	a1,a1,0x2
80002e84:	8c640000 	lw	a0,0(v1)
80002e88:	00651021 	addu	v0,v1,a1
80002e8c:	24630004 	addiu	v1,v1,4
80002e90:	1467fffc 	bne	v1,a3,80002e84 <frame_free+0x98>
80002e94:	ac440000 	sw	a0,0(v0)
80002e98:	1200000a 	beqz	s0,80002ec4 <frame_free+0xd8>
80002e9c:	3c138000 	lui	s3,0x8000
80002ea0:	02939821 	addu	s3,s4,s3
80002ea4:	0000a025 	move	s4,zero
80002ea8:	02602025 	move	a0,s3
80002eac:	0c000d28 	jal	800034a0 <kfree>
80002eb0:	26940001 	addiu	s4,s4,1
80002eb4:	1614fffc 	bne	s0,s4,80002ea8 <frame_free+0xbc>
80002eb8:	26731000 	addiu	s3,s3,4096
80002ebc:	8e280320 	lw	t0,800(s1)
80002ec0:	01104023 	subu	t0,t0,s0
80002ec4:	02402025 	move	a0,s2
80002ec8:	0c0005ad 	jal	800016b4 <interrupts_restore>
80002ecc:	ae280320 	sw	t0,800(s1)
80002ed0:	8fbf0024 	lw	ra,36(sp)
80002ed4:	8fb40020 	lw	s4,32(sp)
80002ed8:	8fb3001c 	lw	s3,28(sp)
80002edc:	8fb20018 	lw	s2,24(sp)
80002ee0:	8fb10014 	lw	s1,20(sp)
80002ee4:	8fb00010 	lw	s0,16(sp)
80002ee8:	00001025 	move	v0,zero
80002eec:	03e00008 	jr	ra
80002ef0:	27bd0028 	addiu	sp,sp,40
80002ef4:	8fbf0024 	lw	ra,36(sp)
80002ef8:	8fb40020 	lw	s4,32(sp)
80002efc:	8fb3001c 	lw	s3,28(sp)
80002f00:	8fb20018 	lw	s2,24(sp)
80002f04:	8fb10014 	lw	s1,20(sp)
80002f08:	8fb00010 	lw	s0,16(sp)
80002f0c:	24020005 	li	v0,5
80002f10:	03e00008 	jr	ra
80002f14:	27bd0028 	addiu	sp,sp,40
80002f18:	8fbf0024 	lw	ra,36(sp)
80002f1c:	8fb40020 	lw	s4,32(sp)
80002f20:	8fb3001c 	lw	s3,28(sp)
80002f24:	8fb20018 	lw	s2,24(sp)
80002f28:	8fb10014 	lw	s1,20(sp)
80002f2c:	8fb00010 	lw	s0,16(sp)
80002f30:	24020003 	li	v0,3
80002f34:	03e00008 	jr	ra
80002f38:	27bd0028 	addiu	sp,sp,40
80002f3c:	00000000 	nop

80002f40 <kmalloc_at>:
80002f40:	3c038000 	lui	v1,0x8000
80002f44:	246354ec 	addiu	v1,v1,21740
80002f48:	8c6c3840 	lw	t4,14400(v1)
80002f4c:	2582ffff 	addiu	v0,t4,-1
80002f50:	0082102b 	sltu	v0,a0,v0
80002f54:	5040000f 	beqzl	v0,80002f94 <kmalloc_at+0x54>
80002f58:	01856021 	addu	t4,t4,a1
80002f5c:	000c10c0 	sll	v0,t4,0x3
80002f60:	2442fff8 	addiu	v0,v0,-8
80002f64:	000450c0 	sll	t2,a0,0x3
80002f68:	00621021 	addu	v0,v1,v0
80002f6c:	006a5021 	addu	t2,v1,t2
80002f70:	000558c0 	sll	t3,a1,0x3
80002f74:	8c490000 	lw	t1,0(v0)
80002f78:	8c480004 	lw	t0,4(v0)
80002f7c:	004b3821 	addu	a3,v0,t3
80002f80:	2442fff8 	addiu	v0,v0,-8
80002f84:	ace90000 	sw	t1,0(a3)
80002f88:	144afffa 	bne	v0,t2,80002f74 <kmalloc_at+0x34>
80002f8c:	ace80004 	sw	t0,4(a3)
80002f90:	01856021 	addu	t4,t4,a1
80002f94:	10a0000c 	beqz	a1,80002fc8 <kmalloc_at+0x88>
80002f98:	ac6c3840 	sw	t4,14400(v1)
80002f9c:	24820001 	addiu	v0,a0,1
80002fa0:	000210c0 	sll	v0,v0,0x3
80002fa4:	00052b00 	sll	a1,a1,0xc
80002fa8:	00621021 	addu	v0,v1,v0
80002fac:	00a62821 	addu	a1,a1,a2
80002fb0:	24031000 	li	v1,4096
80002fb4:	ac460004 	sw	a2,4(v0)
80002fb8:	24c61000 	addiu	a2,a2,4096
80002fbc:	ac430000 	sw	v1,0(v0)
80002fc0:	14c5fffc 	bne	a2,a1,80002fb4 <kmalloc_at+0x74>
80002fc4:	24420008 	addiu	v0,v0,8
80002fc8:	03e00008 	jr	ra
80002fcc:	00000000 	nop

80002fd0 <count_biggest_free_block>:
80002fd0:	27bdffe0 	addiu	sp,sp,-32
80002fd4:	afbf001c 	sw	ra,28(sp)
80002fd8:	0c0005a5 	jal	80001694 <interrupts_disable>
80002fdc:	afb00018 	sw	s0,24(sp)
80002fe0:	3c038000 	lui	v1,0x8000
80002fe4:	246354ec 	addiu	v1,v1,21740
80002fe8:	8c6c3840 	lw	t4,14400(v1)
80002fec:	3c0d000f 	lui	t5,0xf
80002ff0:	3c188001 	lui	t8,0x8001
80002ff4:	258cffff 	addiu	t4,t4,-1
80002ff8:	25ad4240 	addiu	t5,t5,16960
80002ffc:	2d850002 	sltiu	a1,t4,2
80003000:	00402025 	move	a0,v0
80003004:	14a0002e 	bnez	a1,800030c0 <count_biggest_free_block+0xf0>
80003008:	af0d8d30 	sw	t5,-29392(t8)
8000300c:	8c67000c 	lw	a3,12(v1)
80003010:	3c058000 	lui	a1,0x8000
80003014:	24a554f4 	addiu	a1,a1,21748
80003018:	00007825 	move	t7,zero
8000301c:	24060001 	li	a2,1
80003020:	00008025 	move	s0,zero
80003024:	00007025 	move	t6,zero
80003028:	00e01825 	move	v1,a3
8000302c:	8ca7000c 	lw	a3,12(a1)
80003030:	8ca90000 	lw	t1,0(a1)
80003034:	00c05025 	move	t2,a2
80003038:	00e31823 	subu	v1,a3,v1
8000303c:	00694023 	subu	t0,v1,t1
80003040:	0208582b 	sltu	t3,s0,t0
80003044:	10690006 	beq	v1,t1,80003060 <count_biggest_free_block+0x90>
80003048:	24c60001 	addiu	a2,a2,1
8000304c:	11600004 	beqz	t3,80003060 <count_biggest_free_block+0x90>
80003050:	01c87021 	addu	t6,t6,t0
80003054:	01406825 	move	t5,t2
80003058:	01008025 	move	s0,t0
8000305c:	240f0001 	li	t7,1
80003060:	14ccfff1 	bne	a2,t4,80003028 <count_biggest_free_block+0x58>
80003064:	24a50008 	addiu	a1,a1,8
80003068:	55e00001 	bnezl	t7,80003070 <count_biggest_free_block+0xa0>
8000306c:	af0d8d30 	sw	t5,-29392(t8)
80003070:	3c028000 	lui	v0,0x8000
80003074:	8c4254e8 	lw	v0,21736(v0)
80003078:	004e1023 	subu	v0,v0,t6
8000307c:	0202182b 	sltu	v1,s0,v0
80003080:	10600008 	beqz	v1,800030a4 <count_biggest_free_block+0xd4>
80003084:	afa20010 	sw	v0,16(sp)
80003088:	0c0005ad 	jal	800016b4 <interrupts_restore>
8000308c:	00000000 	nop
80003090:	8fbf001c 	lw	ra,28(sp)
80003094:	8fa20010 	lw	v0,16(sp)
80003098:	8fb00018 	lw	s0,24(sp)
8000309c:	03e00008 	jr	ra
800030a0:	27bd0020 	addiu	sp,sp,32
800030a4:	0c0005ad 	jal	800016b4 <interrupts_restore>
800030a8:	00000000 	nop
800030ac:	8fbf001c 	lw	ra,28(sp)
800030b0:	02001025 	move	v0,s0
800030b4:	8fb00018 	lw	s0,24(sp)
800030b8:	03e00008 	jr	ra
800030bc:	27bd0020 	addiu	sp,sp,32
800030c0:	00008025 	move	s0,zero
800030c4:	1000ffea 	b	80003070 <count_biggest_free_block+0xa0>
800030c8:	00007025 	move	t6,zero

800030cc <heap_init>:
800030cc:	27bdffe8 	addiu	sp,sp,-24
800030d0:	afbf0014 	sw	ra,20(sp)
800030d4:	0c0005a5 	jal	80001694 <interrupts_disable>
800030d8:	afb00010 	sw	s0,16(sp)
800030dc:	0c000564 	jal	80001590 <debug_get_base_memory_size>
800030e0:	00408025 	move	s0,v0
800030e4:	3c058001 	lui	a1,0x8001
800030e8:	24a592c4 	addiu	a1,a1,-27964
800030ec:	3c088000 	lui	t0,0x8000
800030f0:	3c078000 	lui	a3,0x8000
800030f4:	00453021 	addu	a2,v0,a1
800030f8:	ad0254e8 	sw	v0,21736(t0)
800030fc:	3c028001 	lui	v0,0x8001
80003100:	24e354ec 	addiu	v1,a3,21740
80003104:	ac459060 	sw	a1,-28576(v0)
80003108:	3c048000 	lui	a0,0x8000
8000310c:	24020001 	li	v0,1
80003110:	2484526c 	addiu	a0,a0,21100
80003114:	ac623840 	sw	v0,14400(v1)
80003118:	3c028001 	lui	v0,0x8001
8000311c:	ace054ec 	sw	zero,21740(a3)
80003120:	ac650004 	sw	a1,4(v1)
80003124:	0c0006ea 	jal	80001ba8 <printk>
80003128:	ac469058 	sw	a2,-28584(v0)
8000312c:	8fbf0014 	lw	ra,20(sp)
80003130:	02002025 	move	a0,s0
80003134:	8fb00010 	lw	s0,16(sp)
80003138:	080005ad 	j	800016b4 <interrupts_restore>
8000313c:	27bd0018 	addiu	sp,sp,24

80003140 <push_first>:
80003140:	27bdffe0 	addiu	sp,sp,-32
80003144:	afb00018 	sw	s0,24(sp)
80003148:	afbf001c 	sw	ra,28(sp)
8000314c:	0c0005a5 	jal	80001694 <interrupts_disable>
80003150:	00808025 	move	s0,a0
80003154:	3c0a8000 	lui	t2,0x8000
80003158:	254854ec 	addiu	t0,t2,21740
8000315c:	8d093840 	lw	t1,14400(t0)
80003160:	00402025 	move	a0,v0
80003164:	2d220002 	sltiu	v0,t1,2
80003168:	14400009 	bnez	v0,80003190 <push_first+0x50>
8000316c:	000918c0 	sll	v1,t1,0x3
80003170:	01031821 	addu	v1,t0,v1
80003174:	25070008 	addiu	a3,t0,8
80003178:	8c66fff8 	lw	a2,-8(v1)
8000317c:	8c65fffc 	lw	a1,-4(v1)
80003180:	2463fff8 	addiu	v1,v1,-8
80003184:	ac660008 	sw	a2,8(v1)
80003188:	1467fffb 	bne	v1,a3,80003178 <push_first+0x38>
8000318c:	ac65000c 	sw	a1,12(v1)
80003190:	8d030004 	lw	v1,4(t0)
80003194:	8d4254ec 	lw	v0,21740(t2)
80003198:	25290001 	addiu	t1,t1,1
8000319c:	ad100008 	sw	s0,8(t0)
800031a0:	00621021 	addu	v0,v1,v0
800031a4:	afa20010 	sw	v0,16(sp)
800031a8:	ad02000c 	sw	v0,12(t0)
800031ac:	0c0005ad 	jal	800016b4 <interrupts_restore>
800031b0:	ad093840 	sw	t1,14400(t0)
800031b4:	8fbf001c 	lw	ra,28(sp)
800031b8:	8fa20010 	lw	v0,16(sp)
800031bc:	8fb00018 	lw	s0,24(sp)
800031c0:	03e00008 	jr	ra
800031c4:	27bd0020 	addiu	sp,sp,32

800031c8 <push_back>:
800031c8:	27bdffe0 	addiu	sp,sp,-32
800031cc:	afb00018 	sw	s0,24(sp)
800031d0:	afbf001c 	sw	ra,28(sp)
800031d4:	0c0005a5 	jal	80001694 <interrupts_disable>
800031d8:	00808025 	move	s0,a0
800031dc:	3c0e8000 	lui	t6,0x8000
800031e0:	25ce54ec 	addiu	t6,t6,21740
800031e4:	8dcd3840 	lw	t5,14400(t6)
800031e8:	00402025 	move	a0,v0
800031ec:	25a2ffff 	addiu	v0,t5,-1
800031f0:	2c430002 	sltiu	v1,v0,2
800031f4:	14600035 	bnez	v1,800032cc <push_back+0x104>
800031f8:	3c0c8000 	lui	t4,0x8000
800031fc:	8dc7000c 	lw	a3,12(t6)
80003200:	258c54f4 	addiu	t4,t4,21748
80003204:	3c09000f 	lui	t1,0xf
80003208:	01803025 	move	a2,t4
8000320c:	01a05025 	move	t2,t5
80003210:	24050001 	li	a1,1
80003214:	25294240 	addiu	t1,t1,16960
80003218:	00e01825 	move	v1,a3
8000321c:	8cc7000c 	lw	a3,12(a2)
80003220:	8cc80000 	lw	t0,0(a2)
80003224:	02031821 	addu	v1,s0,v1
80003228:	00e31823 	subu	v1,a3,v1
8000322c:	00681823 	subu	v1,v1,t0
80003230:	0069402b 	sltu	t0,v1,t1
80003234:	00a05825 	move	t3,a1
80003238:	11000003 	beqz	t0,80003248 <push_back+0x80>
8000323c:	24a50001 	addiu	a1,a1,1
80003240:	00604825 	move	t1,v1
80003244:	01605025 	move	t2,t3
80003248:	14a2fff3 	bne	a1,v0,80003218 <push_back+0x50>
8000324c:	24c60008 	addiu	a2,a2,8
80003250:	114d001f 	beq	t2,t5,800032d0 <push_back+0x108>
80003254:	25480001 	addiu	t0,t2,1
80003258:	010d102b 	sltu	v0,t0,t5
8000325c:	1040002d 	beqz	v0,80003314 <push_back+0x14c>
80003260:	000d18c0 	sll	v1,t5,0x3
80003264:	000a50c0 	sll	t2,t2,0x3
80003268:	01c31821 	addu	v1,t6,v1
8000326c:	018a6021 	addu	t4,t4,t2
80003270:	8c66fff8 	lw	a2,-8(v1)
80003274:	8c65fffc 	lw	a1,-4(v1)
80003278:	2463fff8 	addiu	v1,v1,-8
8000327c:	ac660008 	sw	a2,8(v1)
80003280:	1583fffb 	bne	t4,v1,80003270 <push_back+0xa8>
80003284:	ac65000c 	sw	a1,12(v1)
80003288:	01ca5021 	addu	t2,t6,t2
8000328c:	8d420004 	lw	v0,4(t2)
80003290:	8d430000 	lw	v1,0(t2)
80003294:	000840c0 	sll	t0,t0,0x3
80003298:	01c84021 	addu	t0,t6,t0
8000329c:	00431021 	addu	v0,v0,v1
800032a0:	25ad0001 	addiu	t5,t5,1
800032a4:	ad100000 	sw	s0,0(t0)
800032a8:	ad020004 	sw	v0,4(t0)
800032ac:	afa20010 	sw	v0,16(sp)
800032b0:	0c0005ad 	jal	800016b4 <interrupts_restore>
800032b4:	adcd3840 	sw	t5,14400(t6)
800032b8:	8fbf001c 	lw	ra,28(sp)
800032bc:	8fa20010 	lw	v0,16(sp)
800032c0:	8fb00018 	lw	s0,24(sp)
800032c4:	03e00008 	jr	ra
800032c8:	27bd0020 	addiu	sp,sp,32
800032cc:	25a80001 	addiu	t0,t5,1
800032d0:	000210c0 	sll	v0,v0,0x3
800032d4:	01c21021 	addu	v0,t6,v0
800032d8:	8c430004 	lw	v1,4(v0)
800032dc:	8c420000 	lw	v0,0(v0)
800032e0:	000d68c0 	sll	t5,t5,0x3
800032e4:	01cd6821 	addu	t5,t6,t5
800032e8:	00621021 	addu	v0,v1,v0
800032ec:	adb00000 	sw	s0,0(t5)
800032f0:	ada20004 	sw	v0,4(t5)
800032f4:	afa20010 	sw	v0,16(sp)
800032f8:	0c0005ad 	jal	800016b4 <interrupts_restore>
800032fc:	adc83840 	sw	t0,14400(t6)
80003300:	8fbf001c 	lw	ra,28(sp)
80003304:	8fa20010 	lw	v0,16(sp)
80003308:	8fb00018 	lw	s0,24(sp)
8000330c:	03e00008 	jr	ra
80003310:	27bd0020 	addiu	sp,sp,32
80003314:	1000ffdc 	b	80003288 <push_back+0xc0>
80003318:	000a50c0 	sll	t2,t2,0x3

8000331c <kmalloc>:
8000331c:	27bdffe0 	addiu	sp,sp,-32
80003320:	afb10018 	sw	s1,24(sp)
80003324:	afb00014 	sw	s0,20(sp)
80003328:	afbf001c 	sw	ra,28(sp)
8000332c:	0c0005a5 	jal	80001694 <interrupts_disable>
80003330:	00808025 	move	s0,a0
80003334:	3c038001 	lui	v1,0x8001
80003338:	8c648d2c 	lw	a0,-29396(v1)
8000333c:	24030708 	li	v1,1800
80003340:	1083001d 	beq	a0,v1,800033b8 <kmalloc+0x9c>
80003344:	00408825 	move	s1,v0
80003348:	00102023 	negu	a0,s0
8000334c:	30840003 	andi	a0,a0,0x3
80003350:	0c000bf4 	jal	80002fd0 <count_biggest_free_block>
80003354:	02048021 	addu	s0,s0,a0
80003358:	0050102b 	sltu	v0,v0,s0
8000335c:	14400016 	bnez	v0,800033b8 <kmalloc+0x9c>
80003360:	3c038000 	lui	v1,0x8000
80003364:	8c6254e8 	lw	v0,21736(v1)
80003368:	3c048001 	lui	a0,0x8001
8000336c:	8c848d30 	lw	a0,-29392(a0)
80003370:	00501023 	subu	v0,v0,s0
80003374:	1080000c 	beqz	a0,800033a8 <kmalloc+0x8c>
80003378:	ac6254e8 	sw	v0,21736(v1)
8000337c:	0c000c72 	jal	800031c8 <push_back>
80003380:	02002025 	move	a0,s0
80003384:	00408025 	move	s0,v0
80003388:	0c0005ad 	jal	800016b4 <interrupts_restore>
8000338c:	02202025 	move	a0,s1
80003390:	8fbf001c 	lw	ra,28(sp)
80003394:	8fb10018 	lw	s1,24(sp)
80003398:	02001025 	move	v0,s0
8000339c:	8fb00014 	lw	s0,20(sp)
800033a0:	03e00008 	jr	ra
800033a4:	27bd0020 	addiu	sp,sp,32
800033a8:	0c000c50 	jal	80003140 <push_first>
800033ac:	02002025 	move	a0,s0
800033b0:	1000fff5 	b	80003388 <kmalloc+0x6c>
800033b4:	00408025 	move	s0,v0
800033b8:	0c0005ad 	jal	800016b4 <interrupts_restore>
800033bc:	02202025 	move	a0,s1
800033c0:	8fbf001c 	lw	ra,28(sp)
800033c4:	8fb10018 	lw	s1,24(sp)
800033c8:	8fb00014 	lw	s0,20(sp)
800033cc:	00001025 	move	v0,zero
800033d0:	03e00008 	jr	ra
800033d4:	27bd0020 	addiu	sp,sp,32

800033d8 <delete_chunk>:
800033d8:	27bdffe0 	addiu	sp,sp,-32
800033dc:	afb00018 	sw	s0,24(sp)
800033e0:	afbf001c 	sw	ra,28(sp)
800033e4:	0c0005a5 	jal	80001694 <interrupts_disable>
800033e8:	00808025 	move	s0,a0
800033ec:	3c098000 	lui	t1,0x8000
800033f0:	252954ec 	addiu	t1,t1,21740
800033f4:	8d273840 	lw	a3,14400(t1)
800033f8:	00402025 	move	a0,v0
800033fc:	2ce20002 	sltiu	v0,a3,2
80003400:	14400020 	bnez	v0,80003484 <delete_chunk+0xac>
80003404:	3c038000 	lui	v1,0x8000
80003408:	246354f8 	addiu	v1,v1,21752
8000340c:	10000004 	b	80003420 <delete_chunk+0x48>
80003410:	24050001 	li	a1,1
80003414:	24a50001 	addiu	a1,a1,1
80003418:	10a7001a 	beq	a1,a3,80003484 <delete_chunk+0xac>
8000341c:	00000000 	nop
80003420:	8c660000 	lw	a2,0(v1)
80003424:	14d0fffb 	bne	a2,s0,80003414 <delete_chunk+0x3c>
80003428:	24630008 	addiu	v1,v1,8
8000342c:	000518c0 	sll	v1,a1,0x3
80003430:	01231821 	addu	v1,t1,v1
80003434:	000740c0 	sll	t0,a3,0x3
80003438:	00a7282b 	sltu	a1,a1,a3
8000343c:	8c620000 	lw	v0,0(v1)
80003440:	10a00007 	beqz	a1,80003460 <delete_chunk+0x88>
80003444:	01284021 	addu	t0,t1,t0
80003448:	8c660008 	lw	a2,8(v1)
8000344c:	8c65000c 	lw	a1,12(v1)
80003450:	24630008 	addiu	v1,v1,8
80003454:	ac66fff8 	sw	a2,-8(v1)
80003458:	1503fffb 	bne	t0,v1,80003448 <delete_chunk+0x70>
8000345c:	ac65fffc 	sw	a1,-4(v1)
80003460:	24e7ffff 	addiu	a3,a3,-1
80003464:	afa20010 	sw	v0,16(sp)
80003468:	0c0005ad 	jal	800016b4 <interrupts_restore>
8000346c:	ad273840 	sw	a3,14400(t1)
80003470:	8fbf001c 	lw	ra,28(sp)
80003474:	8fa20010 	lw	v0,16(sp)
80003478:	8fb00018 	lw	s0,24(sp)
8000347c:	03e00008 	jr	ra
80003480:	27bd0020 	addiu	sp,sp,32
80003484:	0c0005ad 	jal	800016b4 <interrupts_restore>
80003488:	00000000 	nop
8000348c:	8fbf001c 	lw	ra,28(sp)
80003490:	8fb00018 	lw	s0,24(sp)
80003494:	00001025 	move	v0,zero
80003498:	03e00008 	jr	ra
8000349c:	27bd0020 	addiu	sp,sp,32

800034a0 <kfree>:
800034a0:	27bdffe0 	addiu	sp,sp,-32
800034a4:	afbf001c 	sw	ra,28(sp)
800034a8:	afb00018 	sw	s0,24(sp)
800034ac:	0c0005a5 	jal	80001694 <interrupts_disable>
800034b0:	afa40010 	sw	a0,16(sp)
800034b4:	8fa40010 	lw	a0,16(sp)
800034b8:	0c000cf6 	jal	800033d8 <delete_chunk>
800034bc:	00408025 	move	s0,v0
800034c0:	3c058000 	lui	a1,0x8000
800034c4:	8ca354e8 	lw	v1,21736(a1)
800034c8:	8fbf001c 	lw	ra,28(sp)
800034cc:	02002025 	move	a0,s0
800034d0:	8fb00018 	lw	s0,24(sp)
800034d4:	00621821 	addu	v1,v1,v0
800034d8:	27bd0020 	addiu	sp,sp,32
800034dc:	080005ad 	j	800016b4 <interrupts_restore>
800034e0:	aca354e8 	sw	v1,21736(a1)

800034e4 <print_array>:
800034e4:	27bdffd8 	addiu	sp,sp,-40
800034e8:	afbf0024 	sw	ra,36(sp)
800034ec:	afb40020 	sw	s4,32(sp)
800034f0:	afb20018 	sw	s2,24(sp)
800034f4:	afb3001c 	sw	s3,28(sp)
800034f8:	afb10014 	sw	s1,20(sp)
800034fc:	0c0005a5 	jal	80001694 <interrupts_disable>
80003500:	afb00010 	sw	s0,16(sp)
80003504:	3c038000 	lui	v1,0x8000
80003508:	247254ec 	addiu	s2,v1,21740
8000350c:	8c6654ec 	lw	a2,21740(v1)
80003510:	8e450004 	lw	a1,4(s2)
80003514:	3c048000 	lui	a0,0x8000
80003518:	24845280 	addiu	a0,a0,21120
8000351c:	0c0006ea 	jal	80001ba8 <printk>
80003520:	0040a025 	move	s4,v0
80003524:	8e423840 	lw	v0,14400(s2)
80003528:	2c420002 	sltiu	v0,v0,2
8000352c:	1440000f 	bnez	v0,8000356c <print_array+0x88>
80003530:	3c108000 	lui	s0,0x8000
80003534:	3c138000 	lui	s3,0x8000
80003538:	261054f4 	addiu	s0,s0,21748
8000353c:	24110001 	li	s1,1
80003540:	267352a0 	addiu	s3,s3,21152
80003544:	8e070000 	lw	a3,0(s0)
80003548:	8e060004 	lw	a2,4(s0)
8000354c:	02202825 	move	a1,s1
80003550:	0c0006ea 	jal	80001ba8 <printk>
80003554:	02602025 	move	a0,s3
80003558:	8e433840 	lw	v1,14400(s2)
8000355c:	26310001 	addiu	s1,s1,1
80003560:	0223182b 	sltu	v1,s1,v1
80003564:	1460fff7 	bnez	v1,80003544 <print_array+0x60>
80003568:	26100008 	addiu	s0,s0,8
8000356c:	8fbf0024 	lw	ra,36(sp)
80003570:	8fb3001c 	lw	s3,28(sp)
80003574:	8fb20018 	lw	s2,24(sp)
80003578:	8fb10014 	lw	s1,20(sp)
8000357c:	8fb00010 	lw	s0,16(sp)
80003580:	02802025 	move	a0,s4
80003584:	8fb40020 	lw	s4,32(sp)
80003588:	080005ad 	j	800016b4 <interrupts_restore>
8000358c:	27bd0028 	addiu	sp,sp,40

80003590 <handle_tlb_refill>:
80003590:	27bdffc8 	addiu	sp,sp,-56
80003594:	afb30030 	sw	s3,48(sp)
80003598:	afb2002c 	sw	s2,44(sp)
8000359c:	afb10028 	sw	s1,40(sp)
800035a0:	afbf0034 	sw	ra,52(sp)
800035a4:	afb00024 	sw	s0,36(sp)
800035a8:	0c0005a5 	jal	80001694 <interrupts_disable>
800035ac:	00808825 	move	s1,a0
800035b0:	3c038000 	lui	v1,0x8000
800035b4:	8c7354e4 	lw	s3,21732(v1)
800035b8:	00409025 	move	s2,v0
800035bc:	0c001252 	jal	80004948 <thread_get_as>
800035c0:	02602025 	move	a0,s3
800035c4:	5040006e 	beqzl	v0,80003780 <handle_tlb_refill+0x1f0>
800035c8:	3c048000 	lui	a0,0x8000
800035cc:	8e250090 	lw	a1,144(s1)
800035d0:	3c048000 	lui	a0,0x8000
800035d4:	248452d4 	addiu	a0,a0,21204
800035d8:	0c0006ea 	jal	80001ba8 <printk>
800035dc:	00408025 	move	s0,v0
800035e0:	8e250090 	lw	a1,144(s1)
800035e4:	27a60018 	addiu	a2,sp,24
800035e8:	0c000a61 	jal	80002984 <as_get_mapping>
800035ec:	02002025 	move	a0,s0
800035f0:	1440005f 	bnez	v0,80003770 <handle_tlb_refill+0x1e0>
800035f4:	00000000 	nop
800035f8:	8e230090 	lw	v1,144(s1)
800035fc:	2404f000 	li	a0,-4096
80003600:	30621000 	andi	v0,v1,0x1000
80003604:	10400037 	beqz	v0,800036e4 <handle_tlb_refill+0x154>
80003608:	00641824 	and	v1,v1,a0
8000360c:	2473f000 	addiu	s3,v1,-4096
80003610:	02602825 	move	a1,s3
80003614:	02002025 	move	a0,s0
80003618:	27a60014 	addiu	a2,sp,20
8000361c:	0c000a61 	jal	80002984 <as_get_mapping>
80003620:	00608825 	move	s1,v1
80003624:	02202825 	move	a1,s1
80003628:	27a60010 	addiu	a2,sp,16
8000362c:	00408825 	move	s1,v0
80003630:	0c000a61 	jal	80002984 <as_get_mapping>
80003634:	02002025 	move	a0,s0
80003638:	16200037 	bnez	s1,80003718 <handle_tlb_refill+0x188>
8000363c:	8fa50014 	lw	a1,20(sp)
80003640:	3c033fff 	lui	v1,0x3fff
80003644:	3463ffc0 	ori	v1,v1,0xffc0
80003648:	00052b02 	srl	a1,a1,0xc
8000364c:	00053180 	sll	a2,a1,0x6
80003650:	10400035 	beqz	v0,80003728 <handle_tlb_refill+0x198>
80003654:	00c33024 	and	a2,a2,v1
80003658:	00601025 	move	v0,v1
8000365c:	2404ffff 	li	a0,-1
80003660:	00001825 	move	v1,zero
80003664:	00000000 	nop
80003668:	40832800 	mtc0	v1,c0_pagemask
8000366c:	2403ffff 	li	v1,-1
80003670:	10a30037 	beq	a1,v1,80003750 <handle_tlb_refill+0x1c0>
80003674:	24030004 	li	v1,4
80003678:	24030006 	li	v1,6
8000367c:	00661825 	or	v1,v1,a2
80003680:	00000000 	nop
80003684:	40831000 	mtc0	v1,c0_entrylo0
80003688:	2403ffff 	li	v1,-1
8000368c:	10830002 	beq	a0,v1,80003698 <handle_tlb_refill+0x108>
80003690:	24030004 	li	v1,4
80003694:	24030006 	li	v1,6
80003698:	00621025 	or	v0,v1,v0
8000369c:	00000000 	nop
800036a0:	40821800 	mtc0	v0,c0_entrylo1
800036a4:	92050004 	lbu	a1,4(s0)
800036a8:	2402e000 	li	v0,-8192
800036ac:	02621024 	and	v0,s3,v0
800036b0:	00a22825 	or	a1,a1,v0
800036b4:	00000000 	nop
800036b8:	40855000 	mtc0	a1,c0_entryhi
800036bc:	42000006 	tlbwr
800036c0:	0c0005ad 	jal	800016b4 <interrupts_restore>
800036c4:	02402025 	move	a0,s2
800036c8:	8fbf0034 	lw	ra,52(sp)
800036cc:	8fb30030 	lw	s3,48(sp)
800036d0:	8fb2002c 	lw	s2,44(sp)
800036d4:	8fb10028 	lw	s1,40(sp)
800036d8:	8fb00024 	lw	s0,36(sp)
800036dc:	03e00008 	jr	ra
800036e0:	27bd0038 	addiu	sp,sp,56
800036e4:	00609825 	move	s3,v1
800036e8:	02602825 	move	a1,s3
800036ec:	02002025 	move	a0,s0
800036f0:	27a60014 	addiu	a2,sp,20
800036f4:	0c000a61 	jal	80002984 <as_get_mapping>
800036f8:	24711000 	addiu	s1,v1,4096
800036fc:	02202825 	move	a1,s1
80003700:	27a60010 	addiu	a2,sp,16
80003704:	00408825 	move	s1,v0
80003708:	0c000a61 	jal	80002984 <as_get_mapping>
8000370c:	02002025 	move	a0,s0
80003710:	1220ffcb 	beqz	s1,80003640 <handle_tlb_refill+0xb0>
80003714:	8fa50014 	lw	a1,20(sp)
80003718:	1440ffe9 	bnez	v0,800036c0 <handle_tlb_refill+0x130>
8000371c:	3c063fff 	lui	a2,0x3fff
80003720:	34c6ffc0 	ori	a2,a2,0xffc0
80003724:	2405ffff 	li	a1,-1
80003728:	8fa40010 	lw	a0,16(sp)
8000372c:	00001825 	move	v1,zero
80003730:	00042302 	srl	a0,a0,0xc
80003734:	00041180 	sll	v0,a0,0x6
80003738:	00000000 	nop
8000373c:	40832800 	mtc0	v1,c0_pagemask
80003740:	2403ffff 	li	v1,-1
80003744:	14a3ffcd 	bne	a1,v1,8000367c <handle_tlb_refill+0xec>
80003748:	24030006 	li	v1,6
8000374c:	24030004 	li	v1,4
80003750:	00661825 	or	v1,v1,a2
80003754:	00000000 	nop
80003758:	40831000 	mtc0	v1,c0_entrylo0
8000375c:	2403ffff 	li	v1,-1
80003760:	5483ffcd 	bnel	a0,v1,80003698 <handle_tlb_refill+0x108>
80003764:	24030006 	li	v1,6
80003768:	1000ffcb 	b	80003698 <handle_tlb_refill+0x108>
8000376c:	24030004 	li	v1,4
80003770:	0c001254 	jal	80004950 <thread_kill>
80003774:	02602025 	move	a0,s3
80003778:	1000ffa0 	b	800035fc <handle_tlb_refill+0x6c>
8000377c:	8e230090 	lw	v1,144(s1)
80003780:	0c0006ea 	jal	80001ba8 <printk>
80003784:	248452c0 	addiu	a0,a0,21184
80003788:	0013202b 	sltu	a0,zero,s3
8000378c:	0c001170 	jal	800045c0 <kill_thread>
80003790:	00002825 	move	a1,zero
80003794:	8fbf0034 	lw	ra,52(sp)
80003798:	8fb30030 	lw	s3,48(sp)
8000379c:	8fb2002c 	lw	s2,44(sp)
800037a0:	8fb10028 	lw	s1,40(sp)
800037a4:	8fb00024 	lw	s0,36(sp)
800037a8:	03e00008 	jr	ra
800037ac:	27bd0038 	addiu	sp,sp,56

800037b0 <cpu_switch_context>:
800037b0:	27bdff64 	addiu	sp,sp,-156
800037b4:	ac9d0000 	sw	sp,0(a0)
800037b8:	afa00000 	sw	zero,0(sp)
800037bc:	afa10004 	sw	at,4(sp)
800037c0:	afa20008 	sw	v0,8(sp)
800037c4:	afa3000c 	sw	v1,12(sp)
800037c8:	afa40010 	sw	a0,16(sp)
800037cc:	afa50014 	sw	a1,20(sp)
800037d0:	afa60018 	sw	a2,24(sp)
800037d4:	afa7001c 	sw	a3,28(sp)
800037d8:	afa80020 	sw	t0,32(sp)
800037dc:	afa90024 	sw	t1,36(sp)
800037e0:	afaa0028 	sw	t2,40(sp)
800037e4:	afab002c 	sw	t3,44(sp)
800037e8:	afac0030 	sw	t4,48(sp)
800037ec:	afad0034 	sw	t5,52(sp)
800037f0:	afae0038 	sw	t6,56(sp)
800037f4:	afaf003c 	sw	t7,60(sp)
800037f8:	afb80040 	sw	t8,64(sp)
800037fc:	afb90044 	sw	t9,68(sp)
80003800:	afb00048 	sw	s0,72(sp)
80003804:	afb1004c 	sw	s1,76(sp)
80003808:	afb20050 	sw	s2,80(sp)
8000380c:	afb30054 	sw	s3,84(sp)
80003810:	afb40058 	sw	s4,88(sp)
80003814:	afb5005c 	sw	s5,92(sp)
80003818:	afb60060 	sw	s6,96(sp)
8000381c:	afb70064 	sw	s7,100(sp)
80003820:	afbc0070 	sw	gp,112(sp)
80003824:	afbe0074 	sw	s8,116(sp)
80003828:	afbf007c 	sw	ra,124(sp)
8000382c:	00004012 	mflo	t0
80003830:	00004810 	mfhi	t1
80003834:	afa80080 	sw	t0,128(sp)
80003838:	afa90084 	sw	t1,132(sp)
8000383c:	40086000 	mfc0	t0,c0_sr
80003840:	afa80098 	sw	t0,152(sp)
80003844:	2409fffe 	li	t1,-2
80003848:	01094024 	and	t0,t0,t1
8000384c:	40886000 	mtc0	t0,c0_sr
80003850:	40085000 	mfc0	t0,c0_entryhi
80003854:	2409ff00 	li	t1,-256
80003858:	01094024 	and	t0,t0,t1
8000385c:	01064025 	or	t0,t0,a2
80003860:	40885000 	mtc0	t0,c0_entryhi
80003864:	8cbd0000 	lw	sp,0(a1)
80003868:	8fa80080 	lw	t0,128(sp)
8000386c:	8fa90084 	lw	t1,132(sp)
80003870:	01000013 	mtlo	t0
80003874:	01200011 	mthi	t1
80003878:	8fbf007c 	lw	ra,124(sp)
8000387c:	8fbe0074 	lw	s8,116(sp)
80003880:	8fbc0070 	lw	gp,112(sp)
80003884:	8fb70064 	lw	s7,100(sp)
80003888:	8fb60060 	lw	s6,96(sp)
8000388c:	8fb5005c 	lw	s5,92(sp)
80003890:	8fb40058 	lw	s4,88(sp)
80003894:	8fb30054 	lw	s3,84(sp)
80003898:	8fb20050 	lw	s2,80(sp)
8000389c:	8fb1004c 	lw	s1,76(sp)
800038a0:	8fb00048 	lw	s0,72(sp)
800038a4:	8fb90044 	lw	t9,68(sp)
800038a8:	8fb80040 	lw	t8,64(sp)
800038ac:	8faf003c 	lw	t7,60(sp)
800038b0:	8fae0038 	lw	t6,56(sp)
800038b4:	8fad0034 	lw	t5,52(sp)
800038b8:	8fac0030 	lw	t4,48(sp)
800038bc:	8fab002c 	lw	t3,44(sp)
800038c0:	8faa0028 	lw	t2,40(sp)
800038c4:	8fa90024 	lw	t1,36(sp)
800038c8:	8fa80020 	lw	t0,32(sp)
800038cc:	8fa7001c 	lw	a3,28(sp)
800038d0:	8fa60018 	lw	a2,24(sp)
800038d4:	8fa50014 	lw	a1,20(sp)
800038d8:	8fa40010 	lw	a0,16(sp)
800038dc:	8fa3000c 	lw	v1,12(sp)
800038e0:	8fa20008 	lw	v0,8(sp)
800038e4:	8fa10004 	lw	at,4(sp)
800038e8:	8fa00000 	lw	zero,0(sp)
800038ec:	8fba0098 	lw	k0,152(sp)
800038f0:	27bd009c 	addiu	sp,sp,156
800038f4:	03e00008 	jr	ra
800038f8:	409a6000 	mtc0	k0,c0_sr
800038fc:	00000000 	nop

80003900 <mutex_init>:
80003900:	27bdffe8 	addiu	sp,sp,-24
80003904:	afbf0014 	sw	ra,20(sp)
80003908:	afb00010 	sw	s0,16(sp)
8000390c:	0c0005a5 	jal	80001694 <interrupts_disable>
80003910:	00808025 	move	s0,a0
80003914:	00402025 	move	a0,v0
80003918:	a2000000 	sb	zero,0(s0)
8000391c:	0c0005ad 	jal	800016b4 <interrupts_restore>
80003920:	ae000004 	sw	zero,4(s0)
80003924:	8fbf0014 	lw	ra,20(sp)
80003928:	8fb00010 	lw	s0,16(sp)
8000392c:	00001025 	move	v0,zero
80003930:	03e00008 	jr	ra
80003934:	27bd0018 	addiu	sp,sp,24

80003938 <mutex_destroy>:
80003938:	27bdffe8 	addiu	sp,sp,-24
8000393c:	afb00010 	sw	s0,16(sp)
80003940:	afbf0014 	sw	ra,20(sp)
80003944:	0c0005a5 	jal	80001694 <interrupts_disable>
80003948:	00808025 	move	s0,a0
8000394c:	92030000 	lbu	v1,0(s0)
80003950:	14600006 	bnez	v1,8000396c <mutex_destroy+0x34>
80003954:	00408025 	move	s0,v0
80003958:	8fbf0014 	lw	ra,20(sp)
8000395c:	02002025 	move	a0,s0
80003960:	8fb00010 	lw	s0,16(sp)
80003964:	080005ad 	j	800016b4 <interrupts_restore>
80003968:	27bd0018 	addiu	sp,sp,24
8000396c:	3c048000 	lui	a0,0x8000
80003970:	0c0006ea 	jal	80001ba8 <printk>
80003974:	248452f0 	addiu	a0,a0,21232
80003978:	3c048000 	lui	a0,0x8000
8000397c:	0c0008e8 	jal	800023a0 <puts>
80003980:	24845320 	addiu	a0,a0,21280
80003984:	00000028 	0x28
80003988:	8fbf0014 	lw	ra,20(sp)
8000398c:	02002025 	move	a0,s0
80003990:	8fb00010 	lw	s0,16(sp)
80003994:	080005ad 	j	800016b4 <interrupts_restore>
80003998:	27bd0018 	addiu	sp,sp,24

8000399c <mutex_lock>:
8000399c:	27bdffe0 	addiu	sp,sp,-32
800039a0:	afb00014 	sw	s0,20(sp)
800039a4:	afb10018 	sw	s1,24(sp)
800039a8:	afbf001c 	sw	ra,28(sp)
800039ac:	0c0005a5 	jal	80001694 <interrupts_disable>
800039b0:	00808025 	move	s0,a0
800039b4:	92030000 	lbu	v1,0(s0)
800039b8:	10600006 	beqz	v1,800039d4 <mutex_lock+0x38>
800039bc:	00408825 	move	s1,v0
800039c0:	0c0010a4 	jal	80004290 <thread_yield>
800039c4:	00000000 	nop
800039c8:	92030000 	lbu	v1,0(s0)
800039cc:	1460fffc 	bnez	v1,800039c0 <mutex_lock+0x24>
800039d0:	00000000 	nop
800039d4:	3c028000 	lui	v0,0x8000
800039d8:	8c4254e4 	lw	v0,21732(v0)
800039dc:	24030001 	li	v1,1
800039e0:	8fbf001c 	lw	ra,28(sp)
800039e4:	a2030000 	sb	v1,0(s0)
800039e8:	ae020004 	sw	v0,4(s0)
800039ec:	02202025 	move	a0,s1
800039f0:	8fb00014 	lw	s0,20(sp)
800039f4:	8fb10018 	lw	s1,24(sp)
800039f8:	080005ad 	j	800016b4 <interrupts_restore>
800039fc:	27bd0020 	addiu	sp,sp,32

80003a00 <mutex_unlock>:
80003a00:	27bdffe0 	addiu	sp,sp,-32
80003a04:	afb10018 	sw	s1,24(sp)
80003a08:	afb00014 	sw	s0,20(sp)
80003a0c:	afbf001c 	sw	ra,28(sp)
80003a10:	0c0005a5 	jal	80001694 <interrupts_disable>
80003a14:	00808025 	move	s0,a0
80003a18:	3c038000 	lui	v1,0x8000
80003a1c:	8e040004 	lw	a0,4(s0)
80003a20:	8c6354e4 	lw	v1,21732(v1)
80003a24:	1083000e 	beq	a0,v1,80003a60 <mutex_unlock+0x60>
80003a28:	00408825 	move	s1,v0
80003a2c:	3c048000 	lui	a0,0x8000
80003a30:	0c0006ea 	jal	80001ba8 <printk>
80003a34:	24845340 	addiu	a0,a0,21312
80003a38:	3c048000 	lui	a0,0x8000
80003a3c:	0c0008e8 	jal	800023a0 <puts>
80003a40:	24845374 	addiu	a0,a0,21364
80003a44:	00000028 	0x28
80003a48:	8fbf001c 	lw	ra,28(sp)
80003a4c:	8fb00014 	lw	s0,20(sp)
80003a50:	02202025 	move	a0,s1
80003a54:	8fb10018 	lw	s1,24(sp)
80003a58:	080005ad 	j	800016b4 <interrupts_restore>
80003a5c:	27bd0020 	addiu	sp,sp,32
80003a60:	8fbf001c 	lw	ra,28(sp)
80003a64:	ae000004 	sw	zero,4(s0)
80003a68:	a2000000 	sb	zero,0(s0)
80003a6c:	02202025 	move	a0,s1
80003a70:	8fb00014 	lw	s0,20(sp)
80003a74:	8fb10018 	lw	s1,24(sp)
80003a78:	080005ad 	j	800016b4 <interrupts_restore>
80003a7c:	27bd0020 	addiu	sp,sp,32

80003a80 <mutex_trylock>:
80003a80:	27bdffe8 	addiu	sp,sp,-24
80003a84:	afb00010 	sw	s0,16(sp)
80003a88:	afbf0014 	sw	ra,20(sp)
80003a8c:	0c0005a5 	jal	80001694 <interrupts_disable>
80003a90:	00808025 	move	s0,a0
80003a94:	92030000 	lbu	v1,0(s0)
80003a98:	1460000c 	bnez	v1,80003acc <mutex_trylock+0x4c>
80003a9c:	00402025 	move	a0,v0
80003aa0:	3c028000 	lui	v0,0x8000
80003aa4:	8c4254e4 	lw	v0,21732(v0)
80003aa8:	24030001 	li	v1,1
80003aac:	a2030000 	sb	v1,0(s0)
80003ab0:	0c0005ad 	jal	800016b4 <interrupts_restore>
80003ab4:	ae020004 	sw	v0,4(s0)
80003ab8:	8fbf0014 	lw	ra,20(sp)
80003abc:	8fb00010 	lw	s0,16(sp)
80003ac0:	00001025 	move	v0,zero
80003ac4:	03e00008 	jr	ra
80003ac8:	27bd0018 	addiu	sp,sp,24
80003acc:	0c0005ad 	jal	800016b4 <interrupts_restore>
80003ad0:	00000000 	nop
80003ad4:	8fbf0014 	lw	ra,20(sp)
80003ad8:	8fb00010 	lw	s0,16(sp)
80003adc:	24020003 	li	v0,3
80003ae0:	03e00008 	jr	ra
80003ae4:	27bd0018 	addiu	sp,sp,24
	...

80003af0 <entry>:
80003af0:	3c048000 	lui	a0,0x8000
80003af4:	27bdffe8 	addiu	sp,sp,-24
80003af8:	afbf0014 	sw	ra,20(sp)
80003afc:	0c0006ea 	jal	80001ba8 <printk>
80003b00:	24845394 	addiu	a0,a0,21396
80003b04:	00000029 	0x29
80003b08:	24054000 	li	a1,16384
80003b0c:	0c00138c 	jal	80004e30 <cpu_jump_to_userspace>
80003b10:	24044000 	li	a0,16384
80003b14:	8fbf0014 	lw	ra,20(sp)
80003b18:	00001025 	move	v0,zero
80003b1c:	03e00008 	jr	ra
80003b20:	27bd0018 	addiu	sp,sp,24

80003b24 <process_create>:
80003b24:	27bdffa8 	addiu	sp,sp,-88
80003b28:	afb40050 	sw	s4,80(sp)
80003b2c:	afb3004c 	sw	s3,76(sp)
80003b30:	afb20048 	sw	s2,72(sp)
80003b34:	afb10044 	sw	s1,68(sp)
80003b38:	afb00040 	sw	s0,64(sp)
80003b3c:	afbf0054 	sw	ra,84(sp)
80003b40:	0080a025 	move	s4,a0
80003b44:	00a09025 	move	s2,a1
80003b48:	00c08025 	move	s0,a2
80003b4c:	0c0005a5 	jal	80001694 <interrupts_disable>
80003b50:	00e08825 	move	s1,a3
80003b54:	1240002d 	beqz	s2,80003c0c <process_create+0xe8>
80003b58:	00409825 	move	s3,v0
80003b5c:	1200002b 	beqz	s0,80003c0c <process_create+0xe8>
80003b60:	0230802b 	sltu	s0,s1,s0
80003b64:	16000029 	bnez	s0,80003c0c <process_create+0xe8>
80003b68:	3c028000 	lui	v0,0x8000
80003b6c:	244253ac 	addiu	v0,v0,21420
80003b70:	3c058000 	lui	a1,0x8000
80003b74:	afb10014 	sw	s1,20(sp)
80003b78:	afa20010 	sw	v0,16(sp)
80003b7c:	24070001 	li	a3,1
80003b80:	00003025 	move	a2,zero
80003b84:	24a53af0 	addiu	a1,a1,15088
80003b88:	0c001216 	jal	80004858 <thread_create_new_as>
80003b8c:	27a40034 	addiu	a0,sp,52
80003b90:	24030002 	li	v1,2
80003b94:	10430028 	beq	v0,v1,80003c38 <process_create+0x114>
80003b98:	02602025 	move	a0,s3
80003b9c:	3c028000 	lui	v0,0x8000
80003ba0:	8c5054c0 	lw	s0,21696(v0)
80003ba4:	02202025 	move	a0,s1
80003ba8:	26030001 	addiu	v1,s0,1
80003bac:	0c000aaf 	jal	80002abc <allign_to_4k>
80003bb0:	ac4354c0 	sw	v1,21696(v0)
80003bb4:	8fa30034 	lw	v1,52(sp)
80003bb8:	27a40018 	addiu	a0,sp,24
80003bbc:	ae840000 	sw	a0,0(s4)
80003bc0:	02602025 	move	a0,s3
80003bc4:	ac74002c 	sw	s4,44(v1)
80003bc8:	afb00020 	sw	s0,32(sp)
80003bcc:	afa20024 	sw	v0,36(sp)
80003bd0:	afa30018 	sw	v1,24(sp)
80003bd4:	afa0001c 	sw	zero,28(sp)
80003bd8:	afa00028 	sw	zero,40(sp)
80003bdc:	afa0002c 	sw	zero,44(sp)
80003be0:	0c0005ad 	jal	800016b4 <interrupts_restore>
80003be4:	afa00030 	sw	zero,48(sp)
80003be8:	8fbf0054 	lw	ra,84(sp)
80003bec:	8fb40050 	lw	s4,80(sp)
80003bf0:	8fb3004c 	lw	s3,76(sp)
80003bf4:	8fb20048 	lw	s2,72(sp)
80003bf8:	8fb10044 	lw	s1,68(sp)
80003bfc:	8fb00040 	lw	s0,64(sp)
80003c00:	00001025 	move	v0,zero
80003c04:	03e00008 	jr	ra
80003c08:	27bd0058 	addiu	sp,sp,88
80003c0c:	0c0005ad 	jal	800016b4 <interrupts_restore>
80003c10:	02602025 	move	a0,s3
80003c14:	24020006 	li	v0,6
80003c18:	8fbf0054 	lw	ra,84(sp)
80003c1c:	8fb40050 	lw	s4,80(sp)
80003c20:	8fb3004c 	lw	s3,76(sp)
80003c24:	8fb20048 	lw	s2,72(sp)
80003c28:	8fb10044 	lw	s1,68(sp)
80003c2c:	8fb00040 	lw	s0,64(sp)
80003c30:	03e00008 	jr	ra
80003c34:	27bd0058 	addiu	sp,sp,88
80003c38:	0c0005ad 	jal	800016b4 <interrupts_restore>
80003c3c:	afa20038 	sw	v0,56(sp)
80003c40:	1000fff5 	b	80003c18 <process_create+0xf4>
80003c44:	8fa20038 	lw	v0,56(sp)

80003c48 <process_join>:
80003c48:	27bdffd8 	addiu	sp,sp,-40
80003c4c:	afb10020 	sw	s1,32(sp)
80003c50:	afb0001c 	sw	s0,28(sp)
80003c54:	afbf0024 	sw	ra,36(sp)
80003c58:	0c0005a5 	jal	80001694 <interrupts_disable>
80003c5c:	00808025 	move	s0,a0
80003c60:	1200002b 	beqz	s0,80003d10 <process_join+0xc8>
80003c64:	00408825 	move	s1,v0
80003c68:	8e020004 	lw	v0,4(s0)
80003c6c:	2c430006 	sltiu	v1,v0,6
80003c70:	10600017 	beqz	v1,80003cd0 <process_join+0x88>
80003c74:	24030005 	li	v1,5
80003c78:	10430029 	beq	v0,v1,80003d20 <process_join+0xd8>
80003c7c:	00000000 	nop
80003c80:	8e020018 	lw	v0,24(s0)
80003c84:	1440001a 	bnez	v0,80003cf0 <process_join+0xa8>
80003c88:	3c028001 	lui	v0,0x8001
80003c8c:	8c42905c 	lw	v0,-28580(v0)
80003c90:	50400004 	beqzl	v0,80003ca4 <process_join+0x5c>
80003c94:	8e040000 	lw	a0,0(s0)
80003c98:	ac500014 	sw	s0,20(v0)
80003c9c:	ae020018 	sw	v0,24(s0)
80003ca0:	8e040000 	lw	a0,0(s0)
80003ca4:	0c0011bd 	jal	800046f4 <thread_join>
80003ca8:	00002825 	move	a1,zero
80003cac:	02202025 	move	a0,s1
80003cb0:	0c0005ad 	jal	800016b4 <interrupts_restore>
80003cb4:	afa20010 	sw	v0,16(sp)
80003cb8:	8fa20010 	lw	v0,16(sp)
80003cbc:	8fbf0024 	lw	ra,36(sp)
80003cc0:	8fb10020 	lw	s1,32(sp)
80003cc4:	8fb0001c 	lw	s0,28(sp)
80003cc8:	03e00008 	jr	ra
80003ccc:	27bd0028 	addiu	sp,sp,40
80003cd0:	0c0005ad 	jal	800016b4 <interrupts_restore>
80003cd4:	02202025 	move	a0,s1
80003cd8:	8fbf0024 	lw	ra,36(sp)
80003cdc:	8fb10020 	lw	s1,32(sp)
80003ce0:	8fb0001c 	lw	s0,28(sp)
80003ce4:	00001025 	move	v0,zero
80003ce8:	03e00008 	jr	ra
80003cec:	27bd0028 	addiu	sp,sp,40
80003cf0:	0c0005ad 	jal	800016b4 <interrupts_restore>
80003cf4:	02202025 	move	a0,s1
80003cf8:	8fbf0024 	lw	ra,36(sp)
80003cfc:	8fb10020 	lw	s1,32(sp)
80003d00:	8fb0001c 	lw	s0,28(sp)
80003d04:	24020003 	li	v0,3
80003d08:	03e00008 	jr	ra
80003d0c:	27bd0028 	addiu	sp,sp,40
80003d10:	0c0005ad 	jal	800016b4 <interrupts_restore>
80003d14:	00402025 	move	a0,v0
80003d18:	1000ffe8 	b	80003cbc <process_join+0x74>
80003d1c:	24020006 	li	v0,6
80003d20:	0c0005ad 	jal	800016b4 <interrupts_restore>
80003d24:	02202025 	move	a0,s1
80003d28:	1000ffe4 	b	80003cbc <process_join+0x74>
80003d2c:	24020007 	li	v0,7

80003d30 <scheduler_init>:
80003d30:	27bdffe0 	addiu	sp,sp,-32
80003d34:	afbf001c 	sw	ra,28(sp)
80003d38:	0c0005a5 	jal	80001694 <interrupts_disable>
80003d3c:	00000000 	nop
80003d40:	0c0012c4 	jal	80004b10 <create_queue>
80003d44:	afa20010 	sw	v0,16(sp)
80003d48:	3c038000 	lui	v1,0x8000
80003d4c:	ac6254e0 	sw	v0,21728(v1)
80003d50:	00000000 	nop
80003d54:	40024800 	mfc0	v0,c0_count
80003d58:	3c030098 	lui	v1,0x98
80003d5c:	34639680 	ori	v1,v1,0x9680
80003d60:	00431021 	addu	v0,v0,v1
80003d64:	00000000 	nop
80003d68:	40825800 	mtc0	v0,c0_compare
80003d6c:	8fa40010 	lw	a0,16(sp)
80003d70:	8fbf001c 	lw	ra,28(sp)
80003d74:	080005ad 	j	800016b4 <interrupts_restore>
80003d78:	27bd0020 	addiu	sp,sp,32

80003d7c <scheduler_add_ready_thread>:
80003d7c:	27bdffe0 	addiu	sp,sp,-32
80003d80:	afbf001c 	sw	ra,28(sp)
80003d84:	afb00018 	sw	s0,24(sp)
80003d88:	0c0005a5 	jal	80001694 <interrupts_disable>
80003d8c:	afa40010 	sw	a0,16(sp)
80003d90:	3c038000 	lui	v1,0x8000
80003d94:	8c6454e0 	lw	a0,21728(v1)
80003d98:	8fa50010 	lw	a1,16(sp)
80003d9c:	0c0012d7 	jal	80004b5c <enqueue>
80003da0:	00408025 	move	s0,v0
80003da4:	8fbf001c 	lw	ra,28(sp)
80003da8:	02002025 	move	a0,s0
80003dac:	8fb00018 	lw	s0,24(sp)
80003db0:	080005ad 	j	800016b4 <interrupts_restore>
80003db4:	27bd0020 	addiu	sp,sp,32

80003db8 <scheduler_remove_thread>:
80003db8:	27bdffe0 	addiu	sp,sp,-32
80003dbc:	afbf001c 	sw	ra,28(sp)
80003dc0:	afb00018 	sw	s0,24(sp)
80003dc4:	0c0005a5 	jal	80001694 <interrupts_disable>
80003dc8:	afa40020 	sw	a0,32(sp)
80003dcc:	3c038000 	lui	v1,0x8000
80003dd0:	8c6454e0 	lw	a0,21728(v1)
80003dd4:	8fa50020 	lw	a1,32(sp)
80003dd8:	0c0012f3 	jal	80004bcc <dequeue>
80003ddc:	00408025 	move	s0,v0
80003de0:	02002025 	move	a0,s0
80003de4:	0c0005ad 	jal	800016b4 <interrupts_restore>
80003de8:	afa20010 	sw	v0,16(sp)
80003dec:	8fbf001c 	lw	ra,28(sp)
80003df0:	8fa20010 	lw	v0,16(sp)
80003df4:	8fb00018 	lw	s0,24(sp)
80003df8:	03e00008 	jr	ra
80003dfc:	27bd0020 	addiu	sp,sp,32

80003e00 <scheduler_schedule_next>:
80003e00:	27bdffe0 	addiu	sp,sp,-32
80003e04:	afb10018 	sw	s1,24(sp)
80003e08:	3c118000 	lui	s1,0x8000
80003e0c:	afbf001c 	sw	ra,28(sp)
80003e10:	0c0005a5 	jal	80001694 <interrupts_disable>
80003e14:	afb00014 	sw	s0,20(sp)
80003e18:	8e2454e0 	lw	a0,21728(s1)
80003e1c:	00002825 	move	a1,zero
80003e20:	0c001329 	jal	80004ca4 <get_next_ready>
80003e24:	00408025 	move	s0,v0
80003e28:	10400009 	beqz	v0,80003e50 <scheduler_schedule_next+0x50>
80003e2c:	00402025 	move	a0,v0
80003e30:	0c001123 	jal	8000448c <thread_switch_to>
80003e34:	00000000 	nop
80003e38:	8fbf001c 	lw	ra,28(sp)
80003e3c:	8fb10018 	lw	s1,24(sp)
80003e40:	02002025 	move	a0,s0
80003e44:	8fb00014 	lw	s0,20(sp)
80003e48:	080005ad 	j	800016b4 <interrupts_restore>
80003e4c:	27bd0020 	addiu	sp,sp,32
80003e50:	8e2454e0 	lw	a0,21728(s1)
80003e54:	0c001329 	jal	80004ca4 <get_next_ready>
80003e58:	24050002 	li	a1,2
80003e5c:	0c001123 	jal	8000448c <thread_switch_to>
80003e60:	00402025 	move	a0,v0
80003e64:	8fbf001c 	lw	ra,28(sp)
80003e68:	8fb10018 	lw	s1,24(sp)
80003e6c:	02002025 	move	a0,s0
80003e70:	8fb00014 	lw	s0,20(sp)
80003e74:	080005ad 	j	800016b4 <interrupts_restore>
80003e78:	27bd0020 	addiu	sp,sp,32
80003e7c:	00000000 	nop

80003e80 <sem_init>:
80003e80:	27bdffe0 	addiu	sp,sp,-32
80003e84:	afbf001c 	sw	ra,28(sp)
80003e88:	afb10018 	sw	s1,24(sp)
80003e8c:	afb00014 	sw	s0,20(sp)
80003e90:	00a08825 	move	s1,a1
80003e94:	0c0005a5 	jal	80001694 <interrupts_disable>
80003e98:	00808025 	move	s0,a0
80003e9c:	0c0012c4 	jal	80004b10 <create_queue>
80003ea0:	00000000 	nop
80003ea4:	ae020004 	sw	v0,4(s0)
80003ea8:	ae110000 	sw	s1,0(s0)
80003eac:	0c0005ad 	jal	800016b4 <interrupts_restore>
80003eb0:	00002025 	move	a0,zero
80003eb4:	8fbf001c 	lw	ra,28(sp)
80003eb8:	8fb10018 	lw	s1,24(sp)
80003ebc:	8fb00014 	lw	s0,20(sp)
80003ec0:	00001025 	move	v0,zero
80003ec4:	03e00008 	jr	ra
80003ec8:	27bd0020 	addiu	sp,sp,32

80003ecc <sem_destroy>:
80003ecc:	27bdffe8 	addiu	sp,sp,-24
80003ed0:	afb00010 	sw	s0,16(sp)
80003ed4:	afbf0014 	sw	ra,20(sp)
80003ed8:	0c0005a5 	jal	80001694 <interrupts_disable>
80003edc:	00808025 	move	s0,a0
80003ee0:	8e040004 	lw	a0,4(s0)
80003ee4:	0c001378 	jal	80004de0 <queue_size>
80003ee8:	00408025 	move	s0,v0
80003eec:	14400005 	bnez	v0,80003f04 <sem_destroy+0x38>
80003ef0:	8fbf0014 	lw	ra,20(sp)
80003ef4:	02002025 	move	a0,s0
80003ef8:	8fb00010 	lw	s0,16(sp)
80003efc:	080005ad 	j	800016b4 <interrupts_restore>
80003f00:	27bd0018 	addiu	sp,sp,24
80003f04:	3c048000 	lui	a0,0x8000
80003f08:	0c0006ea 	jal	80001ba8 <printk>
80003f0c:	248453c0 	addiu	a0,a0,21440
80003f10:	3c048000 	lui	a0,0x8000
80003f14:	0c0008e8 	jal	800023a0 <puts>
80003f18:	24845404 	addiu	a0,a0,21508
80003f1c:	00000028 	0x28
80003f20:	8fbf0014 	lw	ra,20(sp)
80003f24:	02002025 	move	a0,s0
80003f28:	8fb00010 	lw	s0,16(sp)
80003f2c:	080005ad 	j	800016b4 <interrupts_restore>
80003f30:	27bd0018 	addiu	sp,sp,24

80003f34 <sem_get_value>:
80003f34:	27bdffe8 	addiu	sp,sp,-24
80003f38:	afbf0014 	sw	ra,20(sp)
80003f3c:	afb00010 	sw	s0,16(sp)
80003f40:	0c0005a5 	jal	80001694 <interrupts_disable>
80003f44:	00808025 	move	s0,a0
80003f48:	00402025 	move	a0,v0
80003f4c:	0c0005ad 	jal	800016b4 <interrupts_restore>
80003f50:	8e100000 	lw	s0,0(s0)
80003f54:	8fbf0014 	lw	ra,20(sp)
80003f58:	02001025 	move	v0,s0
80003f5c:	8fb00010 	lw	s0,16(sp)
80003f60:	03e00008 	jr	ra
80003f64:	27bd0018 	addiu	sp,sp,24

80003f68 <sem_wait>:
80003f68:	27bdffe0 	addiu	sp,sp,-32
80003f6c:	afb00014 	sw	s0,20(sp)
80003f70:	afb10018 	sw	s1,24(sp)
80003f74:	afbf001c 	sw	ra,28(sp)
80003f78:	0c0005a5 	jal	80001694 <interrupts_disable>
80003f7c:	00808025 	move	s0,a0
80003f80:	8e030000 	lw	v1,0(s0)
80003f84:	10600009 	beqz	v1,80003fac <sem_wait+0x44>
80003f88:	00408825 	move	s1,v0
80003f8c:	2463ffff 	addiu	v1,v1,-1
80003f90:	8fbf001c 	lw	ra,28(sp)
80003f94:	ae030000 	sw	v1,0(s0)
80003f98:	02202025 	move	a0,s1
80003f9c:	8fb00014 	lw	s0,20(sp)
80003fa0:	8fb10018 	lw	s1,24(sp)
80003fa4:	080005ad 	j	800016b4 <interrupts_restore>
80003fa8:	27bd0020 	addiu	sp,sp,32
80003fac:	3c028000 	lui	v0,0x8000
80003fb0:	8e040004 	lw	a0,4(s0)
80003fb4:	0c0012d7 	jal	80004b5c <enqueue>
80003fb8:	8c4554e4 	lw	a1,21732(v0)
80003fbc:	0c0010ca 	jal	80004328 <thread_suspend>
80003fc0:	00000000 	nop
80003fc4:	8fbf001c 	lw	ra,28(sp)
80003fc8:	8fb00014 	lw	s0,20(sp)
80003fcc:	02202025 	move	a0,s1
80003fd0:	8fb10018 	lw	s1,24(sp)
80003fd4:	080005ad 	j	800016b4 <interrupts_restore>
80003fd8:	27bd0020 	addiu	sp,sp,32

80003fdc <sem_post>:
80003fdc:	27bdffe0 	addiu	sp,sp,-32
80003fe0:	afb00014 	sw	s0,20(sp)
80003fe4:	afb10018 	sw	s1,24(sp)
80003fe8:	afbf001c 	sw	ra,28(sp)
80003fec:	0c0005a5 	jal	80001694 <interrupts_disable>
80003ff0:	00808025 	move	s0,a0
80003ff4:	8e030000 	lw	v1,0(s0)
80003ff8:	1c600009 	bgtz	v1,80004020 <sem_post+0x44>
80003ffc:	00408825 	move	s1,v0
80004000:	24630001 	addiu	v1,v1,1
80004004:	8fbf001c 	lw	ra,28(sp)
80004008:	ae030000 	sw	v1,0(s0)
8000400c:	02202025 	move	a0,s1
80004010:	8fb00014 	lw	s0,20(sp)
80004014:	8fb10018 	lw	s1,24(sp)
80004018:	080005ad 	j	800016b4 <interrupts_restore>
8000401c:	27bd0020 	addiu	sp,sp,32
80004020:	0c001378 	jal	80004de0 <queue_size>
80004024:	8e040004 	lw	a0,4(s0)
80004028:	14400003 	bnez	v0,80004038 <sem_post+0x5c>
8000402c:	00000000 	nop
80004030:	1000fff3 	b	80004000 <sem_post+0x24>
80004034:	8e030000 	lw	v1,0(s0)
80004038:	0c001367 	jal	80004d9c <remove_and_return_first>
8000403c:	8e040004 	lw	a0,4(s0)
80004040:	0c001102 	jal	80004408 <thread_wakeup>
80004044:	00402025 	move	a0,v0
80004048:	8fbf001c 	lw	ra,28(sp)
8000404c:	8fb00014 	lw	s0,20(sp)
80004050:	02202025 	move	a0,s1
80004054:	8fb10018 	lw	s1,24(sp)
80004058:	080005ad 	j	800016b4 <interrupts_restore>
8000405c:	27bd0020 	addiu	sp,sp,32

80004060 <sem_trywait>:
80004060:	27bdffe8 	addiu	sp,sp,-24
80004064:	afb00010 	sw	s0,16(sp)
80004068:	afbf0014 	sw	ra,20(sp)
8000406c:	0c0005a5 	jal	80001694 <interrupts_disable>
80004070:	00808025 	move	s0,a0
80004074:	8e030000 	lw	v1,0(s0)
80004078:	10600009 	beqz	v1,800040a0 <sem_trywait+0x40>
8000407c:	00402025 	move	a0,v0
80004080:	2463ffff 	addiu	v1,v1,-1
80004084:	0c0005ad 	jal	800016b4 <interrupts_restore>
80004088:	ae030000 	sw	v1,0(s0)
8000408c:	8fbf0014 	lw	ra,20(sp)
80004090:	8fb00010 	lw	s0,16(sp)
80004094:	00001025 	move	v0,zero
80004098:	03e00008 	jr	ra
8000409c:	27bd0018 	addiu	sp,sp,24
800040a0:	0c0005ad 	jal	800016b4 <interrupts_restore>
800040a4:	00000000 	nop
800040a8:	8fbf0014 	lw	ra,20(sp)
800040ac:	8fb00010 	lw	s0,16(sp)
800040b0:	24020003 	li	v0,3
800040b4:	03e00008 	jr	ra
800040b8:	27bd0018 	addiu	sp,sp,24
800040bc:	00000000 	nop

800040c0 <threads_init>:
800040c0:	03e00008 	jr	ra
800040c4:	00000000 	nop

800040c8 <thread_create>:
800040c8:	27bdffd0 	addiu	sp,sp,-48
800040cc:	afb60028 	sw	s6,40(sp)
800040d0:	afb50024 	sw	s5,36(sp)
800040d4:	afb40020 	sw	s4,32(sp)
800040d8:	afb3001c 	sw	s3,28(sp)
800040dc:	afb20018 	sw	s2,24(sp)
800040e0:	afb00010 	sw	s0,16(sp)
800040e4:	afbf002c 	sw	ra,44(sp)
800040e8:	afb10014 	sw	s1,20(sp)
800040ec:	0080b025 	move	s6,a0
800040f0:	8fb00040 	lw	s0,64(sp)
800040f4:	00a0a825 	move	s5,a1
800040f8:	00c0a025 	move	s4,a2
800040fc:	0c0005a5 	jal	80001694 <interrupts_disable>
80004100:	00e09025 	move	s2,a3
80004104:	24040048 	li	a0,72
80004108:	0c000cc7 	jal	8000331c <kmalloc>
8000410c:	00409825 	move	s3,v0
80004110:	10400041 	beqz	v0,80004218 <thread_create+0x150>
80004114:	00408825 	move	s1,v0
80004118:	02201825 	move	v1,s1
8000411c:	10000005 	b	80004134 <thread_create+0x6c>
80004120:	2602001f 	addiu	v0,s0,31
80004124:	26100001 	addiu	s0,s0,1
80004128:	24630001 	addiu	v1,v1,1
8000412c:	12020003 	beq	s0,v0,8000413c <thread_create+0x74>
80004130:	a068ffff 	sb	t0,-1(v1)
80004134:	5600fffb 	bnezl	s0,80004124 <thread_create+0x5c>
80004138:	82080000 	lb	t0,0(s0)
8000413c:	3a520001 	xori	s2,s2,0x1
80004140:	2e520001 	sltiu	s2,s2,1
80004144:	ae350020 	sw	s5,32(s1)
80004148:	ae34002c 	sw	s4,44(s1)
8000414c:	ae200024 	sw	zero,36(s1)
80004150:	ae200038 	sw	zero,56(s1)
80004154:	ae20003c 	sw	zero,60(s1)
80004158:	a2320044 	sb	s2,68(s1)
8000415c:	0c000cc7 	jal	8000331c <kmalloc>
80004160:	24041000 	li	a0,4096
80004164:	10400037 	beqz	v0,80004244 <thread_create+0x17c>
80004168:	ae220030 	sw	v0,48(s1)
8000416c:	24430f64 	addiu	v1,v0,3940
80004170:	24421000 	addiu	v0,v0,4096
80004174:	ae230034 	sw	v1,52(s1)
80004178:	ac620078 	sw	v0,120(v1)
8000417c:	3c028000 	lui	v0,0x8000
80004180:	24424698 	addiu	v0,v0,18072
80004184:	3405ff01 	li	a1,0xff01
80004188:	ac62007c 	sw	v0,124(v1)
8000418c:	ac650098 	sw	a1,152(v1)
80004190:	02202025 	move	a0,s1
80004194:	ae230028 	sw	v1,40(s1)
80004198:	ac710010 	sw	s1,16(v1)
8000419c:	0c000f5f 	jal	80003d7c <scheduler_add_ready_thread>
800041a0:	aed10000 	sw	s1,0(s6)
800041a4:	3c028000 	lui	v0,0x8000
800041a8:	8c4254e0 	lw	v0,21728(v0)
800041ac:	3c048000 	lui	a0,0x8000
800041b0:	24845420 	addiu	a0,a0,21536
800041b4:	0c0006ea 	jal	80001ba8 <printk>
800041b8:	8c500000 	lw	s0,0(v0)
800041bc:	12000009 	beqz	s0,800041e4 <thread_create+0x11c>
800041c0:	3c118000 	lui	s1,0x8000
800041c4:	26315438 	addiu	s1,s1,21560
800041c8:	8e050000 	lw	a1,0(s0)
800041cc:	02202025 	move	a0,s1
800041d0:	0c0006ea 	jal	80001ba8 <printk>
800041d4:	8ca60024 	lw	a2,36(a1)
800041d8:	8e100004 	lw	s0,4(s0)
800041dc:	5600fffb 	bnezl	s0,800041cc <thread_create+0x104>
800041e0:	8e050000 	lw	a1,0(s0)
800041e4:	0c0005ad 	jal	800016b4 <interrupts_restore>
800041e8:	02602025 	move	a0,s3
800041ec:	00001025 	move	v0,zero
800041f0:	8fbf002c 	lw	ra,44(sp)
800041f4:	8fb60028 	lw	s6,40(sp)
800041f8:	8fb50024 	lw	s5,36(sp)
800041fc:	8fb40020 	lw	s4,32(sp)
80004200:	8fb3001c 	lw	s3,28(sp)
80004204:	8fb20018 	lw	s2,24(sp)
80004208:	8fb10014 	lw	s1,20(sp)
8000420c:	8fb00010 	lw	s0,16(sp)
80004210:	03e00008 	jr	ra
80004214:	27bd0030 	addiu	sp,sp,48
80004218:	8fbf002c 	lw	ra,44(sp)
8000421c:	8fb60028 	lw	s6,40(sp)
80004220:	8fb50024 	lw	s5,36(sp)
80004224:	8fb40020 	lw	s4,32(sp)
80004228:	8fb3001c 	lw	s3,28(sp)
8000422c:	8fb20018 	lw	s2,24(sp)
80004230:	8fb10014 	lw	s1,20(sp)
80004234:	8fb00010 	lw	s0,16(sp)
80004238:	24020002 	li	v0,2
8000423c:	03e00008 	jr	ra
80004240:	27bd0030 	addiu	sp,sp,48
80004244:	0c000d28 	jal	800034a0 <kfree>
80004248:	02202025 	move	a0,s1
8000424c:	0c0005ad 	jal	800016b4 <interrupts_restore>
80004250:	02602025 	move	a0,s3
80004254:	1000ffe6 	b	800041f0 <thread_create+0x128>
80004258:	24020002 	li	v0,2

8000425c <thread_get_current>:
8000425c:	27bdffe8 	addiu	sp,sp,-24
80004260:	afbf0014 	sw	ra,20(sp)
80004264:	0c0005a5 	jal	80001694 <interrupts_disable>
80004268:	afb00010 	sw	s0,16(sp)
8000426c:	00402025 	move	a0,v0
80004270:	3c038000 	lui	v1,0x8000
80004274:	0c0005ad 	jal	800016b4 <interrupts_restore>
80004278:	8c7054e4 	lw	s0,21732(v1)
8000427c:	8fbf0014 	lw	ra,20(sp)
80004280:	02001025 	move	v0,s0
80004284:	8fb00010 	lw	s0,16(sp)
80004288:	03e00008 	jr	ra
8000428c:	27bd0018 	addiu	sp,sp,24

80004290 <thread_yield>:
80004290:	27bdffe0 	addiu	sp,sp,-32
80004294:	afb10018 	sw	s1,24(sp)
80004298:	afb00014 	sw	s0,20(sp)
8000429c:	afbf001c 	sw	ra,28(sp)
800042a0:	0c0005a5 	jal	80001694 <interrupts_disable>
800042a4:	00000000 	nop
800042a8:	3c038000 	lui	v1,0x8000
800042ac:	8c7054e4 	lw	s0,21732(v1)
800042b0:	12000018 	beqz	s0,80004314 <thread_yield+0x84>
800042b4:	00408825 	move	s1,v0
800042b8:	ae000024 	sw	zero,36(s0)
800042bc:	0c000f6e 	jal	80003db8 <scheduler_remove_thread>
800042c0:	02002025 	move	a0,s0
800042c4:	14400009 	bnez	v0,800042ec <thread_yield+0x5c>
800042c8:	00000000 	nop
800042cc:	0c000f80 	jal	80003e00 <scheduler_schedule_next>
800042d0:	00000000 	nop
800042d4:	8fbf001c 	lw	ra,28(sp)
800042d8:	8fb00014 	lw	s0,20(sp)
800042dc:	02202025 	move	a0,s1
800042e0:	8fb10018 	lw	s1,24(sp)
800042e4:	080005ad 	j	800016b4 <interrupts_restore>
800042e8:	27bd0020 	addiu	sp,sp,32
800042ec:	0c000f5f 	jal	80003d7c <scheduler_add_ready_thread>
800042f0:	02002025 	move	a0,s0
800042f4:	0c000f80 	jal	80003e00 <scheduler_schedule_next>
800042f8:	00000000 	nop
800042fc:	8fbf001c 	lw	ra,28(sp)
80004300:	8fb00014 	lw	s0,20(sp)
80004304:	02202025 	move	a0,s1
80004308:	8fb10018 	lw	s1,24(sp)
8000430c:	080005ad 	j	800016b4 <interrupts_restore>
80004310:	27bd0020 	addiu	sp,sp,32
80004314:	3c048000 	lui	a0,0x8000
80004318:	0c0006ea 	jal	80001ba8 <printk>
8000431c:	24845454 	addiu	a0,a0,21588
80004320:	1000ffe6 	b	800042bc <thread_yield+0x2c>
80004324:	ae000024 	sw	zero,36(s0)

80004328 <thread_suspend>:
80004328:	27bdffe0 	addiu	sp,sp,-32
8000432c:	afb10018 	sw	s1,24(sp)
80004330:	afb00014 	sw	s0,20(sp)
80004334:	afbf001c 	sw	ra,28(sp)
80004338:	0c0005a5 	jal	80001694 <interrupts_disable>
8000433c:	00000000 	nop
80004340:	3c038000 	lui	v1,0x8000
80004344:	8c7154e4 	lw	s1,21732(v1)
80004348:	00408025 	move	s0,v0
8000434c:	24020003 	li	v0,3
80004350:	ae220024 	sw	v0,36(s1)
80004354:	0c000f6e 	jal	80003db8 <scheduler_remove_thread>
80004358:	02202025 	move	a0,s1
8000435c:	14400009 	bnez	v0,80004384 <thread_suspend+0x5c>
80004360:	00000000 	nop
80004364:	0c000f80 	jal	80003e00 <scheduler_schedule_next>
80004368:	00000000 	nop
8000436c:	8fbf001c 	lw	ra,28(sp)
80004370:	8fb10018 	lw	s1,24(sp)
80004374:	02002025 	move	a0,s0
80004378:	8fb00014 	lw	s0,20(sp)
8000437c:	080005ad 	j	800016b4 <interrupts_restore>
80004380:	27bd0020 	addiu	sp,sp,32
80004384:	0c000f5f 	jal	80003d7c <scheduler_add_ready_thread>
80004388:	02202025 	move	a0,s1
8000438c:	0c000f80 	jal	80003e00 <scheduler_schedule_next>
80004390:	00000000 	nop
80004394:	8fbf001c 	lw	ra,28(sp)
80004398:	8fb10018 	lw	s1,24(sp)
8000439c:	02002025 	move	a0,s0
800043a0:	8fb00014 	lw	s0,20(sp)
800043a4:	080005ad 	j	800016b4 <interrupts_restore>
800043a8:	27bd0020 	addiu	sp,sp,32

800043ac <thread_has_finished>:
800043ac:	27bdffe8 	addiu	sp,sp,-24
800043b0:	afb00010 	sw	s0,16(sp)
800043b4:	afbf0014 	sw	ra,20(sp)
800043b8:	0c0005a5 	jal	80001694 <interrupts_disable>
800043bc:	00808025 	move	s0,a0
800043c0:	1200000a 	beqz	s0,800043ec <thread_has_finished+0x40>
800043c4:	00402025 	move	a0,v0
800043c8:	0c0005ad 	jal	800016b4 <interrupts_restore>
800043cc:	8e100024 	lw	s0,36(s0)
800043d0:	8fbf0014 	lw	ra,20(sp)
800043d4:	3a100004 	xori	s0,s0,0x4
800043d8:	2e100001 	sltiu	s0,s0,1
800043dc:	02001025 	move	v0,s0
800043e0:	8fb00010 	lw	s0,16(sp)
800043e4:	03e00008 	jr	ra
800043e8:	27bd0018 	addiu	sp,sp,24
800043ec:	0c0005ad 	jal	800016b4 <interrupts_restore>
800043f0:	24100001 	li	s0,1
800043f4:	8fbf0014 	lw	ra,20(sp)
800043f8:	02001025 	move	v0,s0
800043fc:	8fb00010 	lw	s0,16(sp)
80004400:	03e00008 	jr	ra
80004404:	27bd0018 	addiu	sp,sp,24

80004408 <thread_wakeup>:
80004408:	27bdffe0 	addiu	sp,sp,-32
8000440c:	afb00014 	sw	s0,20(sp)
80004410:	afbf001c 	sw	ra,28(sp)
80004414:	00808025 	move	s0,a0
80004418:	0c0005a5 	jal	80001694 <interrupts_disable>
8000441c:	afb10018 	sw	s1,24(sp)
80004420:	12000012 	beqz	s0,8000446c <thread_wakeup+0x64>
80004424:	00402025 	move	a0,v0
80004428:	8e110024 	lw	s1,36(s0)
8000442c:	24020002 	li	v0,2
80004430:	1222000e 	beq	s1,v0,8000446c <thread_wakeup+0x64>
80004434:	24020004 	li	v0,4
80004438:	12220004 	beq	s1,v0,8000444c <thread_wakeup+0x44>
8000443c:	2e220002 	sltiu	v0,s1,2
80004440:	14400002 	bnez	v0,8000444c <thread_wakeup+0x44>
80004444:	00008825 	move	s1,zero
80004448:	ae000024 	sw	zero,36(s0)
8000444c:	0c0005ad 	jal	800016b4 <interrupts_restore>
80004450:	00000000 	nop
80004454:	8fbf001c 	lw	ra,28(sp)
80004458:	8fb00014 	lw	s0,20(sp)
8000445c:	02201025 	move	v0,s1
80004460:	8fb10018 	lw	s1,24(sp)
80004464:	03e00008 	jr	ra
80004468:	27bd0020 	addiu	sp,sp,32
8000446c:	0c0005ad 	jal	800016b4 <interrupts_restore>
80004470:	24110006 	li	s1,6
80004474:	8fbf001c 	lw	ra,28(sp)
80004478:	8fb00014 	lw	s0,20(sp)
8000447c:	02201025 	move	v0,s1
80004480:	8fb10018 	lw	s1,24(sp)
80004484:	03e00008 	jr	ra
80004488:	27bd0020 	addiu	sp,sp,32

8000448c <thread_switch_to>:
8000448c:	27bdffe0 	addiu	sp,sp,-32
80004490:	afb20018 	sw	s2,24(sp)
80004494:	afb10014 	sw	s1,20(sp)
80004498:	afb00010 	sw	s0,16(sp)
8000449c:	afbf001c 	sw	ra,28(sp)
800044a0:	0c0005a5 	jal	80001694 <interrupts_disable>
800044a4:	00808025 	move	s0,a0
800044a8:	3c038000 	lui	v1,0x8000
800044ac:	8c7154e4 	lw	s1,21732(v1)
800044b0:	00409025 	move	s2,v0
800044b4:	12200013 	beqz	s1,80004504 <thread_switch_to+0x78>
800044b8:	ac7054e4 	sw	s0,21732(v1)
800044bc:	24020001 	li	v0,1
800044c0:	ae020024 	sw	v0,36(s0)
800044c4:	0c000f6e 	jal	80003db8 <scheduler_remove_thread>
800044c8:	02202025 	move	a0,s1
800044cc:	1440001d 	bnez	v0,80004544 <thread_switch_to+0xb8>
800044d0:	26240034 	addiu	a0,s1,52
800044d4:	8e020040 	lw	v0,64(s0)
800044d8:	10400020 	beqz	v0,8000455c <thread_switch_to+0xd0>
800044dc:	26050034 	addiu	a1,s0,52
800044e0:	0c000dec 	jal	800037b0 <cpu_switch_context>
800044e4:	90460004 	lbu	a2,4(v0)
800044e8:	8fbf001c 	lw	ra,28(sp)
800044ec:	8fb10014 	lw	s1,20(sp)
800044f0:	8fb00010 	lw	s0,16(sp)
800044f4:	02402025 	move	a0,s2
800044f8:	8fb20018 	lw	s2,24(sp)
800044fc:	080005ad 	j	800016b4 <interrupts_restore>
80004500:	27bd0020 	addiu	sp,sp,32
80004504:	12000028 	beqz	s0,800045a8 <thread_switch_to+0x11c>
80004508:	24030001 	li	v1,1
8000450c:	8e020040 	lw	v0,64(s0)
80004510:	ae030024 	sw	v1,36(s0)
80004514:	1040001a 	beqz	v0,80004580 <thread_switch_to+0xf4>
80004518:	26050034 	addiu	a1,s0,52
8000451c:	90460004 	lbu	a2,4(v0)
80004520:	0c000dec 	jal	800037b0 <cpu_switch_context>
80004524:	00002025 	move	a0,zero
80004528:	8fbf001c 	lw	ra,28(sp)
8000452c:	8fb10014 	lw	s1,20(sp)
80004530:	8fb00010 	lw	s0,16(sp)
80004534:	02402025 	move	a0,s2
80004538:	8fb20018 	lw	s2,24(sp)
8000453c:	080005ad 	j	800016b4 <interrupts_restore>
80004540:	27bd0020 	addiu	sp,sp,32
80004544:	0c000f5f 	jal	80003d7c <scheduler_add_ready_thread>
80004548:	02202025 	move	a0,s1
8000454c:	8e020040 	lw	v0,64(s0)
80004550:	26240034 	addiu	a0,s1,52
80004554:	1440ffe2 	bnez	v0,800044e0 <thread_switch_to+0x54>
80004558:	26050034 	addiu	a1,s0,52
8000455c:	0c000dec 	jal	800037b0 <cpu_switch_context>
80004560:	24060001 	li	a2,1
80004564:	8fbf001c 	lw	ra,28(sp)
80004568:	8fb10014 	lw	s1,20(sp)
8000456c:	8fb00010 	lw	s0,16(sp)
80004570:	02402025 	move	a0,s2
80004574:	8fb20018 	lw	s2,24(sp)
80004578:	080005ad 	j	800016b4 <interrupts_restore>
8000457c:	27bd0020 	addiu	sp,sp,32
80004580:	00002025 	move	a0,zero
80004584:	0c000dec 	jal	800037b0 <cpu_switch_context>
80004588:	24060001 	li	a2,1
8000458c:	8fbf001c 	lw	ra,28(sp)
80004590:	8fb10014 	lw	s1,20(sp)
80004594:	8fb00010 	lw	s0,16(sp)
80004598:	02402025 	move	a0,s2
8000459c:	8fb20018 	lw	s2,24(sp)
800045a0:	080005ad 	j	800016b4 <interrupts_restore>
800045a4:	27bd0020 	addiu	sp,sp,32
800045a8:	8fbf001c 	lw	ra,28(sp)
800045ac:	8fb20018 	lw	s2,24(sp)
800045b0:	8fb10014 	lw	s1,20(sp)
800045b4:	8fb00010 	lw	s0,16(sp)
800045b8:	03e00008 	jr	ra
800045bc:	27bd0020 	addiu	sp,sp,32

800045c0 <kill_thread>:
800045c0:	27bdffd8 	addiu	sp,sp,-40
800045c4:	afb2001c 	sw	s2,28(sp)
800045c8:	afb10018 	sw	s1,24(sp)
800045cc:	afb00014 	sw	s0,20(sp)
800045d0:	afbf0024 	sw	ra,36(sp)
800045d4:	afb30020 	sw	s3,32(sp)
800045d8:	00809025 	move	s2,a0
800045dc:	0c0005a5 	jal	80001694 <interrupts_disable>
800045e0:	00a08025 	move	s0,a1
800045e4:	1600001e 	bnez	s0,80004660 <kill_thread+0xa0>
800045e8:	00408825 	move	s1,v0
800045ec:	3c028000 	lui	v0,0x8000
800045f0:	8c5054e4 	lw	s0,21732(v0)
800045f4:	3c028000 	lui	v0,0x8000
800045f8:	8c4454e0 	lw	a0,21728(v0)
800045fc:	02002825 	move	a1,s0
80004600:	0c00134e 	jal	80004d38 <remove_all_dependencies>
80004604:	8e13003c 	lw	s3,60(s0)
80004608:	0c000f6e 	jal	80003db8 <scheduler_remove_thread>
8000460c:	02002025 	move	a0,s0
80004610:	24020004 	li	v0,4
80004614:	ae020024 	sw	v0,36(s0)
80004618:	ae00003c 	sw	zero,60(s0)
8000461c:	ae000038 	sw	zero,56(s0)
80004620:	0c000d28 	jal	800034a0 <kfree>
80004624:	02002025 	move	a0,s0
80004628:	12400006 	beqz	s2,80004644 <kill_thread+0x84>
8000462c:	8fbf0024 	lw	ra,36(sp)
80004630:	12600015 	beqz	s3,80004688 <kill_thread+0xc8>
80004634:	00000000 	nop
80004638:	0c001123 	jal	8000448c <thread_switch_to>
8000463c:	02602025 	move	a0,s3
80004640:	8fbf0024 	lw	ra,36(sp)
80004644:	8fb30020 	lw	s3,32(sp)
80004648:	8fb2001c 	lw	s2,28(sp)
8000464c:	8fb00014 	lw	s0,20(sp)
80004650:	02202025 	move	a0,s1
80004654:	8fb10018 	lw	s1,24(sp)
80004658:	080005ad 	j	800016b4 <interrupts_restore>
8000465c:	27bd0028 	addiu	sp,sp,40
80004660:	0c000f6e 	jal	80003db8 <scheduler_remove_thread>
80004664:	00002025 	move	a0,zero
80004668:	8fbf0024 	lw	ra,36(sp)
8000466c:	8fb30020 	lw	s3,32(sp)
80004670:	8fb2001c 	lw	s2,28(sp)
80004674:	8fb00014 	lw	s0,20(sp)
80004678:	02202025 	move	a0,s1
8000467c:	8fb10018 	lw	s1,24(sp)
80004680:	080005ad 	j	800016b4 <interrupts_restore>
80004684:	27bd0028 	addiu	sp,sp,40
80004688:	0c000f80 	jal	80003e00 <scheduler_schedule_next>
8000468c:	00000000 	nop
80004690:	1000ffec 	b	80004644 <kill_thread+0x84>
80004694:	8fbf0024 	lw	ra,36(sp)

80004698 <wrap>:
80004698:	00801025 	move	v0,a0
8000469c:	8c420020 	lw	v0,32(v0)
800046a0:	8c84002c 	lw	a0,44(a0)
800046a4:	27bdffe8 	addiu	sp,sp,-24
800046a8:	afbf0014 	sw	ra,20(sp)
800046ac:	0040f809 	jalr	v0
800046b0:	00000000 	nop
800046b4:	8fbf0014 	lw	ra,20(sp)
800046b8:	3c038000 	lui	v1,0x8000
800046bc:	00002825 	move	a1,zero
800046c0:	24040001 	li	a0,1
800046c4:	27bd0018 	addiu	sp,sp,24
800046c8:	08001170 	j	800045c0 <kill_thread>
800046cc:	ac6254d0 	sw	v0,21712(v1)

800046d0 <thread_finish>:
800046d0:	27bdffe8 	addiu	sp,sp,-24
800046d4:	3c028000 	lui	v0,0x8000
800046d8:	ac4454d0 	sw	a0,21712(v0)
800046dc:	afbf0014 	sw	ra,20(sp)
800046e0:	00002825 	move	a1,zero
800046e4:	0c001170 	jal	800045c0 <kill_thread>
800046e8:	24040001 	li	a0,1
800046ec:	1000fffd 	b	800046e4 <thread_finish+0x14>
800046f0:	00002825 	move	a1,zero

800046f4 <thread_join>:
800046f4:	27bdffd8 	addiu	sp,sp,-40
800046f8:	afb2001c 	sw	s2,28(sp)
800046fc:	afb10018 	sw	s1,24(sp)
80004700:	afb00014 	sw	s0,20(sp)
80004704:	afbf0024 	sw	ra,36(sp)
80004708:	afb30020 	sw	s3,32(sp)
8000470c:	00808025 	move	s0,a0
80004710:	0c0005a5 	jal	80001694 <interrupts_disable>
80004714:	00a09025 	move	s2,a1
80004718:	12000047 	beqz	s0,80004838 <thread_join+0x144>
8000471c:	00408825 	move	s1,v0
80004720:	8e030024 	lw	v1,36(s0)
80004724:	24020005 	li	v0,5
80004728:	1062003f 	beq	v1,v0,80004828 <thread_join+0x134>
8000472c:	00000000 	nop
80004730:	24020004 	li	v0,4
80004734:	10620006 	beq	v1,v0,80004750 <thread_join+0x5c>
80004738:	2c630006 	sltiu	v1,v1,6
8000473c:	1060002b 	beqz	v1,800047ec <thread_join+0xf8>
80004740:	3c048000 	lui	a0,0x8000
80004744:	8e02003c 	lw	v0,60(s0)
80004748:	1040000b 	beqz	v0,80004778 <thread_join+0x84>
8000474c:	3c138000 	lui	s3,0x8000
80004750:	0c0005ad 	jal	800016b4 <interrupts_restore>
80004754:	02202025 	move	a0,s1
80004758:	00001025 	move	v0,zero
8000475c:	8fbf0024 	lw	ra,36(sp)
80004760:	8fb30020 	lw	s3,32(sp)
80004764:	8fb2001c 	lw	s2,28(sp)
80004768:	8fb10018 	lw	s1,24(sp)
8000476c:	8fb00014 	lw	s0,20(sp)
80004770:	03e00008 	jr	ra
80004774:	27bd0028 	addiu	sp,sp,40
80004778:	8e6254e4 	lw	v0,21732(s3)
8000477c:	ae02003c 	sw	v0,60(s0)
80004780:	0c0005a5 	jal	80001694 <interrupts_disable>
80004784:	ac500038 	sw	s0,56(v0)
80004788:	8e7354e4 	lw	s3,21732(s3)
8000478c:	0c0005ad 	jal	800016b4 <interrupts_restore>
80004790:	00402025 	move	a0,v0
80004794:	24020002 	li	v0,2
80004798:	ae620024 	sw	v0,36(s3)
8000479c:	0c001123 	jal	8000448c <thread_switch_to>
800047a0:	02002025 	move	a0,s0
800047a4:	12400003 	beqz	s2,800047b4 <thread_join+0xc0>
800047a8:	3c028000 	lui	v0,0x8000
800047ac:	8c4254d0 	lw	v0,21712(v0)
800047b0:	ae420000 	sw	v0,0(s2)
800047b4:	8e030024 	lw	v1,36(s0)
800047b8:	24020005 	li	v0,5
800047bc:	10620022 	beq	v1,v0,80004848 <thread_join+0x154>
800047c0:	02202025 	move	a0,s1
800047c4:	0c0005ad 	jal	800016b4 <interrupts_restore>
800047c8:	00000000 	nop
800047cc:	8fbf0024 	lw	ra,36(sp)
800047d0:	8fb30020 	lw	s3,32(sp)
800047d4:	8fb2001c 	lw	s2,28(sp)
800047d8:	8fb10018 	lw	s1,24(sp)
800047dc:	8fb00014 	lw	s0,20(sp)
800047e0:	00001025 	move	v0,zero
800047e4:	03e00008 	jr	ra
800047e8:	27bd0028 	addiu	sp,sp,40
800047ec:	0c0006ea 	jal	80001ba8 <printk>
800047f0:	24845468 	addiu	a0,a0,21608
800047f4:	24050001 	li	a1,1
800047f8:	0c001170 	jal	800045c0 <kill_thread>
800047fc:	00002025 	move	a0,zero
80004800:	0c0005ad 	jal	800016b4 <interrupts_restore>
80004804:	02202025 	move	a0,s1
80004808:	8fbf0024 	lw	ra,36(sp)
8000480c:	8fb30020 	lw	s3,32(sp)
80004810:	8fb2001c 	lw	s2,28(sp)
80004814:	8fb10018 	lw	s1,24(sp)
80004818:	8fb00014 	lw	s0,20(sp)
8000481c:	00001025 	move	v0,zero
80004820:	03e00008 	jr	ra
80004824:	27bd0028 	addiu	sp,sp,40
80004828:	0c0005ad 	jal	800016b4 <interrupts_restore>
8000482c:	02202025 	move	a0,s1
80004830:	1000ffca 	b	8000475c <thread_join+0x68>
80004834:	24020007 	li	v0,7
80004838:	0c0005ad 	jal	800016b4 <interrupts_restore>
8000483c:	00402025 	move	a0,v0
80004840:	1000ffc6 	b	8000475c <thread_join+0x68>
80004844:	24020006 	li	v0,6
80004848:	0c0005ad 	jal	800016b4 <interrupts_restore>
8000484c:	00000000 	nop
80004850:	1000ffc2 	b	8000475c <thread_join+0x68>
80004854:	24020007 	li	v0,7

80004858 <thread_create_new_as>:
80004858:	27bdffd0 	addiu	sp,sp,-48
8000485c:	afbf002c 	sw	ra,44(sp)
80004860:	afb20024 	sw	s2,36(sp)
80004864:	afb10020 	sw	s1,32(sp)
80004868:	afb0001c 	sw	s0,28(sp)
8000486c:	afa50034 	sw	a1,52(sp)
80004870:	00808025 	move	s0,a0
80004874:	afa60038 	sw	a2,56(sp)
80004878:	afa7003c 	sw	a3,60(sp)
8000487c:	0c0005a5 	jal	80001694 <interrupts_disable>
80004880:	afb30028 	sw	s3,40(sp)
80004884:	8fa30040 	lw	v1,64(sp)
80004888:	8fa7003c 	lw	a3,60(sp)
8000488c:	8fa60038 	lw	a2,56(sp)
80004890:	8fa50034 	lw	a1,52(sp)
80004894:	afa30010 	sw	v1,16(sp)
80004898:	02002025 	move	a0,s0
8000489c:	0c001032 	jal	800040c8 <thread_create>
800048a0:	00409025 	move	s2,v0
800048a4:	00408825 	move	s1,v0
800048a8:	24020002 	li	v0,2
800048ac:	12220014 	beq	s1,v0,80004900 <thread_create_new_as+0xa8>
800048b0:	3c048000 	lui	a0,0x8000
800048b4:	8fa40044 	lw	a0,68(sp)
800048b8:	8e130000 	lw	s3,0(s0)
800048bc:	0c0009e8 	jal	800027a0 <as_create>
800048c0:	00002825 	move	a1,zero
800048c4:	8e030000 	lw	v1,0(s0)
800048c8:	ae620040 	sw	v0,64(s3)
800048cc:	8c620040 	lw	v0,64(v1)
800048d0:	10400017 	beqz	v0,80004930 <thread_create_new_as+0xd8>
800048d4:	3c048000 	lui	a0,0x8000
800048d8:	0c0005ad 	jal	800016b4 <interrupts_restore>
800048dc:	02402025 	move	a0,s2
800048e0:	8fbf002c 	lw	ra,44(sp)
800048e4:	8fb30028 	lw	s3,40(sp)
800048e8:	8fb20024 	lw	s2,36(sp)
800048ec:	8fb0001c 	lw	s0,28(sp)
800048f0:	02201025 	move	v0,s1
800048f4:	8fb10020 	lw	s1,32(sp)
800048f8:	03e00008 	jr	ra
800048fc:	27bd0030 	addiu	sp,sp,48
80004900:	0c0006ea 	jal	80001ba8 <printk>
80004904:	24845480 	addiu	a0,a0,21632
80004908:	0c0005ad 	jal	800016b4 <interrupts_restore>
8000490c:	02402025 	move	a0,s2
80004910:	8fbf002c 	lw	ra,44(sp)
80004914:	8fb30028 	lw	s3,40(sp)
80004918:	8fb20024 	lw	s2,36(sp)
8000491c:	8fb0001c 	lw	s0,28(sp)
80004920:	02201025 	move	v0,s1
80004924:	8fb10020 	lw	s1,32(sp)
80004928:	03e00008 	jr	ra
8000492c:	27bd0030 	addiu	sp,sp,48
80004930:	0c0006ea 	jal	80001ba8 <printk>
80004934:	24845498 	addiu	a0,a0,21656
80004938:	0c0005ad 	jal	800016b4 <interrupts_restore>
8000493c:	02402025 	move	a0,s2
80004940:	1000ffe7 	b	800048e0 <thread_create_new_as+0x88>
80004944:	24110002 	li	s1,2

80004948 <thread_get_as>:
80004948:	03e00008 	jr	ra
8000494c:	8c820040 	lw	v0,64(a0)

80004950 <thread_kill>:
80004950:	27bdffd0 	addiu	sp,sp,-48
80004954:	afb30024 	sw	s3,36(sp)
80004958:	afb1001c 	sw	s1,28(sp)
8000495c:	afbf002c 	sw	ra,44(sp)
80004960:	afb40028 	sw	s4,40(sp)
80004964:	afb20020 	sw	s2,32(sp)
80004968:	afb00018 	sw	s0,24(sp)
8000496c:	0c0005a5 	jal	80001694 <interrupts_disable>
80004970:	00808825 	move	s1,a0
80004974:	1220004e 	beqz	s1,80004ab0 <thread_kill+0x160>
80004978:	00409825 	move	s3,v0
8000497c:	8e220024 	lw	v0,36(s1)
80004980:	24100005 	li	s0,5
80004984:	10500024 	beq	v0,s0,80004a18 <thread_kill+0xc8>
80004988:	24030004 	li	v1,4
8000498c:	1043003c 	beq	v0,v1,80004a80 <thread_kill+0x130>
80004990:	3c128000 	lui	s2,0x8000
80004994:	8e4454e0 	lw	a0,21728(s2)
80004998:	3c028000 	lui	v0,0x8000
8000499c:	02202825 	move	a1,s1
800049a0:	0c00134e 	jal	80004d38 <remove_all_dependencies>
800049a4:	8c5454e4 	lw	s4,21732(v0)
800049a8:	0c000f6e 	jal	80003db8 <scheduler_remove_thread>
800049ac:	02202025 	move	a0,s1
800049b0:	8e240040 	lw	a0,64(s1)
800049b4:	ae300024 	sw	s0,36(s1)
800049b8:	ae20003c 	sw	zero,60(s1)
800049bc:	10800003 	beqz	a0,800049cc <thread_kill+0x7c>
800049c0:	ae200038 	sw	zero,56(s1)
800049c4:	0c000a2e 	jal	800028b8 <as_destroy>
800049c8:	00000000 	nop
800049cc:	0c000d28 	jal	800034a0 <kfree>
800049d0:	02202025 	move	a0,s1
800049d4:	8e4254e0 	lw	v0,21728(s2)
800049d8:	8c500000 	lw	s0,0(v0)
800049dc:	12000009 	beqz	s0,80004a04 <thread_kill+0xb4>
800049e0:	3c128000 	lui	s2,0x8000
800049e4:	26525438 	addiu	s2,s2,21560
800049e8:	8e050000 	lw	a1,0(s0)
800049ec:	02402025 	move	a0,s2
800049f0:	0c0006ea 	jal	80001ba8 <printk>
800049f4:	8ca60024 	lw	a2,36(a1)
800049f8:	8e100004 	lw	s0,4(s0)
800049fc:	5600fffb 	bnezl	s0,800049ec <thread_kill+0x9c>
80004a00:	8e050000 	lw	a1,0(s0)
80004a04:	5234000f 	beql	s1,s4,80004a44 <thread_kill+0xf4>
80004a08:	3c048000 	lui	a0,0x8000
80004a0c:	3c048000 	lui	a0,0x8000
80004a10:	0c0006ea 	jal	80001ba8 <printk>
80004a14:	248454b0 	addiu	a0,a0,21680
80004a18:	0c0005ad 	jal	800016b4 <interrupts_restore>
80004a1c:	02602025 	move	a0,s3
80004a20:	00001025 	move	v0,zero
80004a24:	8fbf002c 	lw	ra,44(sp)
80004a28:	8fb40028 	lw	s4,40(sp)
80004a2c:	8fb30024 	lw	s3,36(sp)
80004a30:	8fb20020 	lw	s2,32(sp)
80004a34:	8fb1001c 	lw	s1,28(sp)
80004a38:	8fb00018 	lw	s0,24(sp)
80004a3c:	03e00008 	jr	ra
80004a40:	27bd0030 	addiu	sp,sp,48
80004a44:	0c0006ea 	jal	80001ba8 <printk>
80004a48:	248454ac 	addiu	a0,a0,21676
80004a4c:	0c0005ad 	jal	800016b4 <interrupts_restore>
80004a50:	02602025 	move	a0,s3
80004a54:	0c000f80 	jal	80003e00 <scheduler_schedule_next>
80004a58:	00000000 	nop
80004a5c:	8fbf002c 	lw	ra,44(sp)
80004a60:	8fb40028 	lw	s4,40(sp)
80004a64:	8fb30024 	lw	s3,36(sp)
80004a68:	8fb20020 	lw	s2,32(sp)
80004a6c:	8fb1001c 	lw	s1,28(sp)
80004a70:	8fb00018 	lw	s0,24(sp)
80004a74:	00001025 	move	v0,zero
80004a78:	03e00008 	jr	ra
80004a7c:	27bd0030 	addiu	sp,sp,48
80004a80:	02602025 	move	a0,s3
80004a84:	0c0005ad 	jal	800016b4 <interrupts_restore>
80004a88:	afa20010 	sw	v0,16(sp)
80004a8c:	8fbf002c 	lw	ra,44(sp)
80004a90:	8fa20010 	lw	v0,16(sp)
80004a94:	8fb40028 	lw	s4,40(sp)
80004a98:	8fb30024 	lw	s3,36(sp)
80004a9c:	8fb20020 	lw	s2,32(sp)
80004aa0:	8fb1001c 	lw	s1,28(sp)
80004aa4:	8fb00018 	lw	s0,24(sp)
80004aa8:	03e00008 	jr	ra
80004aac:	27bd0030 	addiu	sp,sp,48
80004ab0:	0c0005ad 	jal	800016b4 <interrupts_restore>
80004ab4:	00402025 	move	a0,v0
80004ab8:	1000ffda 	b	80004a24 <thread_kill+0xd4>
80004abc:	24020006 	li	v0,6

80004ac0 <new_node>:
80004ac0:	27bdffd8 	addiu	sp,sp,-40
80004ac4:	afbf0024 	sw	ra,36(sp)
80004ac8:	afb10020 	sw	s1,32(sp)
80004acc:	afb0001c 	sw	s0,28(sp)
80004ad0:	0c0005a5 	jal	80001694 <interrupts_disable>
80004ad4:	00808825 	move	s1,a0
80004ad8:	24040008 	li	a0,8
80004adc:	0c000cc7 	jal	8000331c <kmalloc>
80004ae0:	00408025 	move	s0,v0
80004ae4:	ac510000 	sw	s1,0(v0)
80004ae8:	ac400004 	sw	zero,4(v0)
80004aec:	02002025 	move	a0,s0
80004af0:	0c0005ad 	jal	800016b4 <interrupts_restore>
80004af4:	afa20010 	sw	v0,16(sp)
80004af8:	8fbf0024 	lw	ra,36(sp)
80004afc:	8fa20010 	lw	v0,16(sp)
80004b00:	8fb10020 	lw	s1,32(sp)
80004b04:	8fb0001c 	lw	s0,28(sp)
80004b08:	03e00008 	jr	ra
80004b0c:	27bd0028 	addiu	sp,sp,40

80004b10 <create_queue>:
80004b10:	27bdffe0 	addiu	sp,sp,-32
80004b14:	afb00018 	sw	s0,24(sp)
80004b18:	afbf001c 	sw	ra,28(sp)
80004b1c:	0c0005a5 	jal	80001694 <interrupts_disable>
80004b20:	00000000 	nop
80004b24:	24040008 	li	a0,8
80004b28:	0c000cc7 	jal	8000331c <kmalloc>
80004b2c:	00408025 	move	s0,v0
80004b30:	10400003 	beqz	v0,80004b40 <create_queue+0x30>
80004b34:	02002025 	move	a0,s0
80004b38:	ac400004 	sw	zero,4(v0)
80004b3c:	ac400000 	sw	zero,0(v0)
80004b40:	0c0005ad 	jal	800016b4 <interrupts_restore>
80004b44:	afa20010 	sw	v0,16(sp)
80004b48:	8fbf001c 	lw	ra,28(sp)
80004b4c:	8fa20010 	lw	v0,16(sp)
80004b50:	8fb00018 	lw	s0,24(sp)
80004b54:	03e00008 	jr	ra
80004b58:	27bd0020 	addiu	sp,sp,32

80004b5c <enqueue>:
80004b5c:	27bdffe0 	addiu	sp,sp,-32
80004b60:	afb10018 	sw	s1,24(sp)
80004b64:	00a08825 	move	s1,a1
80004b68:	afbf001c 	sw	ra,28(sp)
80004b6c:	afb00014 	sw	s0,20(sp)
80004b70:	0c0005a5 	jal	80001694 <interrupts_disable>
80004b74:	00808025 	move	s0,a0
80004b78:	02202025 	move	a0,s1
80004b7c:	0c0012b0 	jal	80004ac0 <new_node>
80004b80:	00408825 	move	s1,v0
80004b84:	8e030000 	lw	v1,0(s0)
80004b88:	10600009 	beqz	v1,80004bb0 <enqueue+0x54>
80004b8c:	8fbf001c 	lw	ra,28(sp)
80004b90:	8e030004 	lw	v1,4(s0)
80004b94:	02202025 	move	a0,s1
80004b98:	ac620004 	sw	v0,4(v1)
80004b9c:	8fb10018 	lw	s1,24(sp)
80004ba0:	ae020004 	sw	v0,4(s0)
80004ba4:	8fb00014 	lw	s0,20(sp)
80004ba8:	080005ad 	j	800016b4 <interrupts_restore>
80004bac:	27bd0020 	addiu	sp,sp,32
80004bb0:	ae020004 	sw	v0,4(s0)
80004bb4:	ae020000 	sw	v0,0(s0)
80004bb8:	02202025 	move	a0,s1
80004bbc:	8fb00014 	lw	s0,20(sp)
80004bc0:	8fb10018 	lw	s1,24(sp)
80004bc4:	080005ad 	j	800016b4 <interrupts_restore>
80004bc8:	27bd0020 	addiu	sp,sp,32

80004bcc <dequeue>:
80004bcc:	27bdffe0 	addiu	sp,sp,-32
80004bd0:	afb10014 	sw	s1,20(sp)
80004bd4:	00808825 	move	s1,a0
80004bd8:	afb20018 	sw	s2,24(sp)
80004bdc:	afb00010 	sw	s0,16(sp)
80004be0:	afbf001c 	sw	ra,28(sp)
80004be4:	0c0005a5 	jal	80001694 <interrupts_disable>
80004be8:	00a08025 	move	s0,a1
80004bec:	8e270000 	lw	a3,0(s1)
80004bf0:	00409025 	move	s2,v0
80004bf4:	00002825 	move	a1,zero
80004bf8:	14e00004 	bnez	a3,80004c0c <dequeue+0x40>
80004bfc:	00e02025 	move	a0,a3
80004c00:	10000007 	b	80004c20 <dequeue+0x54>
80004c04:	00000000 	nop
80004c08:	00602025 	move	a0,v1
80004c0c:	8c860000 	lw	a2,0(a0)
80004c10:	10d0000c 	beq	a2,s0,80004c44 <dequeue+0x78>
80004c14:	8c830004 	lw	v1,4(a0)
80004c18:	1460fffb 	bnez	v1,80004c08 <dequeue+0x3c>
80004c1c:	00802825 	move	a1,a0
80004c20:	0c0005ad 	jal	800016b4 <interrupts_restore>
80004c24:	02402025 	move	a0,s2
80004c28:	8fbf001c 	lw	ra,28(sp)
80004c2c:	8fb20018 	lw	s2,24(sp)
80004c30:	8fb10014 	lw	s1,20(sp)
80004c34:	8fb00010 	lw	s0,16(sp)
80004c38:	00001025 	move	v0,zero
80004c3c:	03e00008 	jr	ra
80004c40:	27bd0020 	addiu	sp,sp,32
80004c44:	10a00010 	beqz	a1,80004c88 <dequeue+0xbc>
80004c48:	00000000 	nop
80004c4c:	aca30004 	sw	v1,4(a1)
80004c50:	8c820004 	lw	v0,4(a0)
80004c54:	50400001 	beqzl	v0,80004c5c <dequeue+0x90>
80004c58:	ae250004 	sw	a1,4(s1)
80004c5c:	0c000d28 	jal	800034a0 <kfree>
80004c60:	00000000 	nop
80004c64:	0c0005ad 	jal	800016b4 <interrupts_restore>
80004c68:	02402025 	move	a0,s2
80004c6c:	8fbf001c 	lw	ra,28(sp)
80004c70:	8fb20018 	lw	s2,24(sp)
80004c74:	8fb10014 	lw	s1,20(sp)
80004c78:	8fb00010 	lw	s0,16(sp)
80004c7c:	24020001 	li	v0,1
80004c80:	03e00008 	jr	ra
80004c84:	27bd0020 	addiu	sp,sp,32
80004c88:	50600004 	beqzl	v1,80004c9c <dequeue+0xd0>
80004c8c:	ae200004 	sw	zero,4(s1)
80004c90:	8ce20004 	lw	v0,4(a3)
80004c94:	1000fff1 	b	80004c5c <dequeue+0x90>
80004c98:	ae220000 	sw	v0,0(s1)
80004c9c:	1000ffef 	b	80004c5c <dequeue+0x90>
80004ca0:	ae200000 	sw	zero,0(s1)

80004ca4 <get_next_ready>:
80004ca4:	27bdffe0 	addiu	sp,sp,-32
80004ca8:	afb00014 	sw	s0,20(sp)
80004cac:	00808025 	move	s0,a0
80004cb0:	afb10018 	sw	s1,24(sp)
80004cb4:	afbf001c 	sw	ra,28(sp)
80004cb8:	0c0005a5 	jal	80001694 <interrupts_disable>
80004cbc:	00a08825 	move	s1,a1
80004cc0:	8e100000 	lw	s0,0(s0)
80004cc4:	16000005 	bnez	s0,80004cdc <get_next_ready+0x38>
80004cc8:	00402025 	move	a0,v0
80004ccc:	10000012 	b	80004d18 <get_next_ready+0x74>
80004cd0:	00000000 	nop
80004cd4:	12000010 	beqz	s0,80004d18 <get_next_ready+0x74>
80004cd8:	00000000 	nop
80004cdc:	8e030000 	lw	v1,0(s0)
80004ce0:	8c660024 	lw	a2,36(v1)
80004ce4:	54d1fffb 	bnel	a2,s1,80004cd4 <get_next_ready+0x30>
80004ce8:	8e100004 	lw	s0,4(s0)
80004cec:	8c630038 	lw	v1,56(v1)
80004cf0:	5460fff8 	bnezl	v1,80004cd4 <get_next_ready+0x30>
80004cf4:	8e100004 	lw	s0,4(s0)
80004cf8:	0c0005ad 	jal	800016b4 <interrupts_restore>
80004cfc:	00000000 	nop
80004d00:	8fbf001c 	lw	ra,28(sp)
80004d04:	8e020000 	lw	v0,0(s0)
80004d08:	8fb10018 	lw	s1,24(sp)
80004d0c:	8fb00014 	lw	s0,20(sp)
80004d10:	03e00008 	jr	ra
80004d14:	27bd0020 	addiu	sp,sp,32
80004d18:	0c0005ad 	jal	800016b4 <interrupts_restore>
80004d1c:	00000000 	nop
80004d20:	8fbf001c 	lw	ra,28(sp)
80004d24:	8fb10018 	lw	s1,24(sp)
80004d28:	8fb00014 	lw	s0,20(sp)
80004d2c:	00001025 	move	v0,zero
80004d30:	03e00008 	jr	ra
80004d34:	27bd0020 	addiu	sp,sp,32

80004d38 <remove_all_dependencies>:
80004d38:	27bdffe0 	addiu	sp,sp,-32
80004d3c:	afb10018 	sw	s1,24(sp)
80004d40:	00808825 	move	s1,a0
80004d44:	afb00014 	sw	s0,20(sp)
80004d48:	afbf001c 	sw	ra,28(sp)
80004d4c:	0c0005a5 	jal	80001694 <interrupts_disable>
80004d50:	00a08025 	move	s0,a1
80004d54:	8e230000 	lw	v1,0(s1)
80004d58:	14600005 	bnez	v1,80004d70 <remove_all_dependencies+0x38>
80004d5c:	00402025 	move	a0,v0
80004d60:	1000000a 	b	80004d8c <remove_all_dependencies+0x54>
80004d64:	8fbf001c 	lw	ra,28(sp)
80004d68:	10600008 	beqz	v1,80004d8c <remove_all_dependencies+0x54>
80004d6c:	8fbf001c 	lw	ra,28(sp)
80004d70:	8c660000 	lw	a2,0(v1)
80004d74:	8cc70038 	lw	a3,56(a2)
80004d78:	14f0fffb 	bne	a3,s0,80004d68 <remove_all_dependencies+0x30>
80004d7c:	8c630004 	lw	v1,4(v1)
80004d80:	1460fffb 	bnez	v1,80004d70 <remove_all_dependencies+0x38>
80004d84:	acc00038 	sw	zero,56(a2)
80004d88:	8fbf001c 	lw	ra,28(sp)
80004d8c:	8fb10018 	lw	s1,24(sp)
80004d90:	8fb00014 	lw	s0,20(sp)
80004d94:	080005ad 	j	800016b4 <interrupts_restore>
80004d98:	27bd0020 	addiu	sp,sp,32

80004d9c <remove_and_return_first>:
80004d9c:	27bdffe0 	addiu	sp,sp,-32
80004da0:	afb00014 	sw	s0,20(sp)
80004da4:	00808025 	move	s0,a0
80004da8:	afbf001c 	sw	ra,28(sp)
80004dac:	0c0005a5 	jal	80001694 <interrupts_disable>
80004db0:	afb10018 	sw	s1,24(sp)
80004db4:	8e110000 	lw	s1,0(s0)
80004db8:	00402025 	move	a0,v0
80004dbc:	8e220004 	lw	v0,4(s1)
80004dc0:	0c0005ad 	jal	800016b4 <interrupts_restore>
80004dc4:	ae020000 	sw	v0,0(s0)
80004dc8:	8fbf001c 	lw	ra,28(sp)
80004dcc:	8e220000 	lw	v0,0(s1)
80004dd0:	8fb00014 	lw	s0,20(sp)
80004dd4:	8fb10018 	lw	s1,24(sp)
80004dd8:	03e00008 	jr	ra
80004ddc:	27bd0020 	addiu	sp,sp,32

80004de0 <queue_size>:
80004de0:	27bdffe8 	addiu	sp,sp,-24
80004de4:	afb00010 	sw	s0,16(sp)
80004de8:	afbf0014 	sw	ra,20(sp)
80004dec:	0c0005a5 	jal	80001694 <interrupts_disable>
80004df0:	00808025 	move	s0,a0
80004df4:	8e030000 	lw	v1,0(s0)
80004df8:	00402025 	move	a0,v0
80004dfc:	10600004 	beqz	v1,80004e10 <queue_size+0x30>
80004e00:	00008025 	move	s0,zero
80004e04:	8c630004 	lw	v1,4(v1)
80004e08:	1460fffe 	bnez	v1,80004e04 <queue_size+0x24>
80004e0c:	26100001 	addiu	s0,s0,1
80004e10:	0c0005ad 	jal	800016b4 <interrupts_restore>
80004e14:	00000000 	nop
80004e18:	8fbf0014 	lw	ra,20(sp)
80004e1c:	02001025 	move	v0,s0
80004e20:	8fb00010 	lw	s0,16(sp)
80004e24:	03e00008 	jr	ra
80004e28:	27bd0018 	addiu	sp,sp,24
80004e2c:	00000000 	nop

80004e30 <cpu_jump_to_userspace>:
80004e30:	0080e825 	move	sp,a0
80004e34:	40857000 	mtc0	a1,c0_epc
80004e38:	24040013 	li	a0,19
80004e3c:	40846000 	mtc0	a0,c0_sr
80004e40:	42000018 	eret
	...
80004e50:	6e6b6e75 	ldr	t3,28277(s3)
80004e54:	206e776f 	addi	t6,v1,30575
80004e58:	6f727265 	ldr	s2,29285(k1)
80004e5c:	00000072 	tlt	zero,zero,0x1
80004e60:	203a7325 	addi	k0,at,29477
80004e64:	6c6c6548 	ldr	t4,25928(v1)
80004e68:	7266206f 	0x7266206f
80004e6c:	6b206d6f 	ldl	zero,28015(t9)
80004e70:	656e7265 	daddiu	t6,t3,29285
80004e74:	000a216c 	0xa216c
80004e78:	6e72654b 	ldr	s2,25931(s3)
80004e7c:	70206c65 	0x70206c65
80004e80:	63696e61 	daddi	t1,k1,28257
80004e84:	7375203a 	0x7375203a
80004e88:	70737265 	0x70737265
80004e8c:	20656361 	addi	a1,v1,25441
80004e90:	6c707061 	ldr	s0,28769(v1)
80004e94:	74616369 	jalx	81858da4 <_kernel_end+0x184fae0>
80004e98:	206e6f69 	addi	t6,v1,28521
80004e9c:	6e75616c 	ldr	s5,24940(s3)
80004ea0:	66206863 	daddiu	zero,s1,26723
80004ea4:	656c6961 	daddiu	t4,t3,26977
80004ea8:	25282064 	addiu	t0,t1,8292
80004eac:	25203a64 	addiu	zero,t1,14948
80004eb0:	000a2973 	tltu	zero,t2,0xa5
80004eb4:	61636f4c 	daddi	v1,t3,28492
80004eb8:	6e6f6974 	ldr	t7,26996(s3)
80004ebc:	7273203a 	0x7273203a
80004ec0:	616d2f63 	daddi	t5,t3,12131
80004ec4:	632e6e69 	daddi	t6,t9,28265
80004ec8:	0032323a 	0x32323a
80004ecc:	646e6f43 	daddiu	t6,v1,28483
80004ed0:	6f697469 	ldr	t1,29801(k1)
80004ed4:	65203a6e 	daddiu	zero,t1,14958
80004ed8:	21207272 	addi	zero,t1,29298
80004edc:	4f45203d 	c3	0x145203d
80004ee0:	0000004b 	0x4b
80004ee4:	6573550a 	daddiu	s3,t3,21770
80004ee8:	70612072 	0x70612072
80004eec:	63696c70 	daddi	t1,k1,27760
80004ef0:	6f697461 	ldr	t1,29793(k1)
80004ef4:	6f66206e 	ldr	a2,8302(k1)
80004ef8:	66656372 	daddiu	a1,s3,25458
80004efc:	796c6c75 	0x796c6c75
80004f00:	72657420 	0x72657420
80004f04:	616e696d 	daddi	t6,t3,26989
80004f08:	2e646574 	sltiu	a0,s3,25972
80004f0c:	0000000a 	0xa
80004f10:	6e72654b 	ldr	s2,25931(s3)
80004f14:	70206c65 	0x70206c65
80004f18:	63696e61 	daddi	t1,k1,28257
80004f1c:	6177203a 	daddi	s7,t3,8250
80004f20:	6e697469 	ldr	t1,29801(s3)
80004f24:	6f662067 	ldr	a2,8295(k1)
80004f28:	73752072 	0x73752072
80004f2c:	70737265 	0x70737265
80004f30:	20656361 	addi	a1,v1,25441
80004f34:	6c707061 	ldr	s0,28769(v1)
80004f38:	74616369 	jalx	81858da4 <_kernel_end+0x184fae0>
80004f3c:	206e6f69 	addi	t6,v1,28521
80004f40:	6c696166 	ldr	t1,24934(v1)
80004f44:	28206465 	slti	zero,at,25701
80004f48:	203a6425 	addi	k0,at,25637
80004f4c:	0a297325 	j	88a5cc94 <_kernel_end+0x8a539d0>
80004f50:	00000000 	nop
80004f54:	61636f4c 	daddi	v1,t3,28492
80004f58:	6e6f6974 	ldr	t7,26996(s3)
80004f5c:	7273203a 	0x7273203a
80004f60:	616d2f63 	daddi	t5,t3,12131
80004f64:	632e6e69 	daddi	t6,t9,28265
80004f68:	0039323a 	0x39323a
80004f6c:	6573550a 	daddiu	s3,t3,21770
80004f70:	70612072 	0x70612072
80004f74:	63696c70 	daddi	t1,k1,27760
80004f78:	6f697461 	ldr	t1,29793(k1)
80004f7c:	6166206e 	daddi	a2,t3,8302
80004f80:	64656c69 	daddiu	a1,v1,27753
80004f84:	00000a2e 	0xa2e
80004f88:	6c61480a 	ldr	at,18442(v1)
80004f8c:	000a2e74 	teq	zero,t2,0xb9
80004f90:	494e495b 	0x494e495b
80004f94:	00005d54 	0x5d54
80004f98:	6e72654b 	ldr	s2,25931(s3)
80004f9c:	70206c65 	0x70206c65
80004fa0:	63696e61 	daddi	t1,k1,28257
80004fa4:	6e69203a 	ldr	t1,8250(s3)
80004fa8:	74207469 	jalx	8081d1a4 <_kernel_end+0x813ee0>
80004fac:	61657268 	daddi	a1,t3,29288
80004fb0:	72632064 	0x72632064
80004fb4:	69746165 	ldl	s4,24933(t3)
80004fb8:	66206e6f 	daddiu	zero,s1,28271
80004fbc:	656c6961 	daddiu	t4,t3,26977
80004fc0:	25282064 	addiu	t0,t1,8292
80004fc4:	25203a64 	addiu	zero,t1,14948
80004fc8:	000a2973 	tltu	zero,t2,0xa5
80004fcc:	61636f4c 	daddi	v1,t3,28492
80004fd0:	6e6f6974 	ldr	t7,26996(s3)
80004fd4:	7273203a 	0x7273203a
80004fd8:	616d2f63 	daddi	t5,t3,12131
80004fdc:	632e6e69 	daddi	t6,t9,28265
80004fe0:	0039353a 	0x39353a
80004fe4:	6e72654b 	ldr	s2,25931(s3)
80004fe8:	70206c65 	0x70206c65
80004fec:	63696e61 	daddi	t1,k1,28257
80004ff0:	6e75203a 	ldr	s5,8250(s3)
80004ff4:	65707865 	daddiu	s0,t3,30821
80004ff8:	64657463 	daddiu	a1,v1,29795
80004ffc:	74657220 	jalx	8195c880 <_kernel_end+0x19535bc>
80005000:	206e7275 	addi	t6,v1,29301
80005004:	6b206f74 	ldl	zero,28532(t9)
80005008:	656e7265 	daddiu	t6,t3,29285
8000500c:	616d5f6c 	daddi	t5,t3,24428
80005010:	000a6e69 	0xa6e69
80005014:	61636f4c 	daddi	v1,t3,28492
80005018:	6e6f6974 	ldr	t7,26996(s3)
8000501c:	7273203a 	0x7273203a
80005020:	616d2f63 	daddi	t5,t3,12131
80005024:	632e6e69 	daddi	t6,t9,28265
80005028:	0037363a 	0x37363a
8000502c:	65206f6e 	daddiu	zero,t1,28526
80005030:	726f7272 	0x726f7272
80005034:	00000000 	nop
80005038:	20746f6e 	addi	s4,v1,28526
8000503c:	6c706d69 	ldr	s0,28009(v1)
80005040:	6e656d65 	ldr	a1,28005(s3)
80005044:	00646574 	teq	v1,a0,0x195
80005048:	2074756f 	addi	s4,v1,30063
8000504c:	6d20666f 	ldr	zero,26223(t1)
80005050:	726f6d65 	0x726f6d65
80005054:	00000079 	0x79
80005058:	6f736572 	ldr	s3,25970(k1)
8000505c:	65637275 	daddiu	v1,t3,29301
80005060:	20736920 	addi	s3,v1,26912
80005064:	79737562 	0x79737562
80005068:	00000000 	nop
8000506c:	65726874 	daddiu	s2,t3,26740
80005070:	61206461 	daddi	zero,t1,25697
80005074:	6165726c 	daddi	a1,t3,29292
80005078:	65207964 	daddiu	zero,t1,31076
8000507c:	65746978 	daddiu	s4,t3,27000
80005080:	00000064 	0x64
80005084:	73206f6e 	0x73206f6e
80005088:	20686375 	addi	t0,v1,25461
8000508c:	72746e65 	0x72746e65
80005090:	00000079 	0x79
80005094:	61766e69 	daddi	s6,t3,28265
80005098:	2064696c 	addi	a0,v1,26988
8000509c:	756c6176 	jalx	85b185d8 <_kernel_end+0x5b0f314>
800050a0:	00000065 	0x65
800050a4:	65726874 	daddiu	s2,t3,26740
800050a8:	77206461 	jalx	8c819184 <_kernel_end+0xc80fec0>
800050ac:	6b207361 	ldl	zero,29537(t9)
800050b0:	656c6c69 	daddiu	t4,t3,27753
800050b4:	00000064 	0x64
	...

800050c0 <CSWTCH.4>:
800050c0:	8000502c 80005038 80005048 80005058     ,P..8P..HP..XP..
800050d0:	8000506c 80005084 80005094 800050a4     lP...P...P...P..
800050e0:	3c207825 3a3e7325 0000000a 203a7825     %x <%s>:....%x: 
800050f0:	20202020 25202020 00000a61 706d655b            %a...[emp
80005100:	005d7974 65726854 69206461 3a6f666e     ty].Thread info:
80005110:	00000000 656d614e 0000203a 72646441     ....Name: ..Addr
80005120:	3a737365 00000020 74617453 203a7375     ess: ...Status: 
80005130:	000a6425 33323130 37363534 62613938     %d..0123456789ab
80005140:	66656463 00000000 33323130 37363534     cdef....01234567
80005150:	00003938 33323130 37363534 42413938     89..0123456789AB
80005160:	46454443 00000000 77207341 20687469     CDEF....As with 
80005170:	73796870 70616d20 20646570 25206f74     phys mapped to %
80005180:	73202c70 20657a69 202c7525 20646e61     p, size %u, and 
80005190:	64697361 0a752520 00000000 63207341     asid %u.....As c
800051a0:	61746e6f 72656e69 6c756620 00000a6c     ontainer full...
800051b0:	4d4f4e45 66204d45 6e20726f 61207765     ENOMEM for new a
800051c0:	00000a73 6d617246 756e2065 7265626d     s...Frame number
800051d0:	2c752520 74697720 68702068 25207379      %u, with phys %
800051e0:	00000a70 6d617246 616c2065 69207473     p...Frame last i
800051f0:	7865646e 2c752520 756f6320 2520746e     ndex %u, count %
80005200:	00000a75 70616548 73616c20 6e692074     u...Heap last in
80005210:	20786564 202c7525 6e756f63 75252074     dex %u, count %u
80005220:	0000000a 75716552 64656972 6d656d20     ....Requried mem
80005230:	7525203a 656d202c 656c5f6d 25207466     : %u, mem_left %
80005240:	00000a75 6f6c6c41 69746163 77206e6f     u...Allocation w
80005250:	646c756f 6d756a20 756f2070 666f2074     ould jump out of
80005260:	6d656d20 0a79726f 00000000 6f6d654d      memory.....Memo
80005270:	203a7972 2c70255b 0a297025 00000000     ry: [%p,%p).....
80005280:	64616548 69207265 64612073 73657264     Header is addres
80005290:	25203a73 6d202c70 203a6d65 000a7525     s: %p, mem: %u..
800052a0:	25203a69 61202c75 65726464 203a7373     i: %u, address: 
800052b0:	202c7025 3a6d656d 0a752520 00000000     %p, mem: %u.....
800052c0:	6e205341 206c6c75 72206e69 6c696665     AS null in refil
800052d0:	00000a6c 74206e49 7220626c 6c696665     l...In tlb refil
800052e0:	62202c6c 61766461 7025203a 0000000a     l, badva: %p....
800052f0:	6e72654b 70206c65 63696e61 7254203a     Kernel panic: Tr
80005300:	676e6979 206f7420 74736564 20796f72     ying to destroy 
80005310:	6b636f6c 6d206465 78657475 0000000a     locked mutex....
80005320:	61636f4c 6e6f6974 7273203a 72702f63     Location: src/pr
80005330:	6d2f636f 78657475 333a632e 00000033     oc/mutex.c:33...
80005340:	6e72654b 70206c65 63696e61 7257203a     Kernel panic: Wr
80005350:	20676e6f 65726874 74206461 64656972     ong thread tried
80005360:	206f7420 6f6c6e75 6d206b63 78657475      to unlock mutex
80005370:	0000000a 61636f4c 6e6f6974 7273203a     ....Location: sr
80005380:	72702f63 6d2f636f 78657475 373a632e     c/proc/mutex.c:7
80005390:	00000031 70206e49 65636f72 65207373     1...In process e
800053a0:	7972746e 6e756620 00000a63 65726854     ntry func...Thre
800053b0:	66206461 7020726f 65636f72 00007373     ad for process..
800053c0:	6e72654b 70206c65 63696e61 7441203a     Kernel panic: At
800053d0:	706d6574 676e6974 206f7420 74736564     tempting to dest
800053e0:	20796f72 616d6573 726f6870 69772065     roy semaphore wi
800053f0:	77206874 69746961 7420676e 61657268     th waiting threa
80005400:	000a7364 61636f4c 6e6f6974 7273203a     ds..Location: sr
80005410:	72702f63 732f636f 632e6d65 0034333a     c/proc/sem.c:34.
80005420:	65726854 6e206461 3a656d61 7473202c     Thread name:, st
80005430:	73757461 0000000a 65726854 6e206461     atus....Thread n
80005440:	3a656d61 2c732520 61747320 20737574     ame: %s, status 
80005450:	000a7525 6c6c754e 72756320 68742072     %u..Null curr th
80005460:	64616572 0000000a 65726854 69206461     read....Thread i
80005470:	6f632073 70757272 0a646574 00000000     s corrupted.....
80005480:	20747542 65726874 77206461 6e207361     But thread was n
80005490:	0a6c6c75 00000000 20747542 77207361     ull.....But as w
800054a0:	6e207361 0a6c6c75 00000000 000a3d3d     as null.....==..
800054b0:	000a3d21 00000000 00000000 00000000     !=..............

800054c0 <id>:
	...

800054d0 <retvalue>:
	...

800054e0 <queue>:
800054e0:	00000000                                ....

800054e4 <current_thread>:
800054e4:	00000000                                ....

800054e8 <mem_left>:
800054e8:	00000000                                ....

800054ec <heap>:
	...

80008d30 <biggest_gap_index>:
80008d30:	00000000                                ....

80008d34 <frame_container>:
	...

80009058 <first_offset_outside_memory>:
80009058:	00000000                                ....

8000905c <current_process>:
8000905c:	00000000                                ....

80009060 <start_address>:
80009060:	00000000                                ....

80009064 <as_container>:
	...

800092c0 <next_asid>:
800092c0:	00000000                                ....
