
kernel.raw:     file format elf32-tradlittlemips


Disassembly of section .kernel:

80000000 <exception_tlb_refill>:
80000000:	00000037 	0x37
80000004:	00000029 	0x29
	...

80000100 <exception_cache_error>:
80000100:	00000037 	0x37
80000104:	00000029 	0x29
	...

80000180 <exception_general>:
80000180:	00000037 	0x37
80000184:	00000029 	0x29
	...

80000400 <start>:
80000400:	3c1d8000 	lui	sp,0x8000
80000404:	37bd0400 	ori	sp,sp,0x400
80000408:	3c1c8000 	lui	gp,0x8000
8000040c:	3c1bffbf 	lui	k1,0xffbf
80000410:	377bffff 	ori	k1,k1,0xffff
80000414:	401a6000 	mfc0	k0,c0_sr
80000418:	035bd024 	and	k0,k0,k1
8000041c:	409a6000 	mtc0	k0,c0_sr
80000420:	00000000 	nop
80000424:	0c000120 	jal	80000480 <kernel_main>
80000428:	00000000 	nop
8000042c:	00000028 	0x28
80000430:	0800010c 	j	80000430 <start+0x30>
80000434:	00000000 	nop
	...

80000440 <init_thread>:
80000440:	27bdffe8 	addiu	sp,sp,-24
80000444:	afbf0014 	sw	ra,20(sp)
80000448:	0c0006e6 	jal	80001b98 <thread_get_current>
8000044c:	00000000 	nop
80000450:	3c048000 	lui	a0,0x8000
80000454:	00402825 	move	a1,v0
80000458:	0c0001be 	jal	800006f8 <printk>
8000045c:	24841ea0 	addiu	a0,a0,7840
80000460:	3c048000 	lui	a0,0x8000
80000464:	0c0001be 	jal	800006f8 <printk>
80000468:	24841eb4 	addiu	a0,a0,7860
8000046c:	00000028 	0x28
80000470:	8fbf0014 	lw	ra,20(sp)
80000474:	00001025 	move	v0,zero
80000478:	03e00008 	jr	ra
8000047c:	27bd0018 	addiu	sp,sp,24

80000480 <kernel_main>:
80000480:	27bdffd8 	addiu	sp,sp,-40
80000484:	afbf0024 	sw	ra,36(sp)
80000488:	0c00053b 	jal	800014ec <heap_init>
8000048c:	00000000 	nop
80000490:	0c00067c 	jal	800019f0 <scheduler_init>
80000494:	00000000 	nop
80000498:	0c0006a4 	jal	80001a90 <threads_init>
8000049c:	00000000 	nop
800004a0:	3c028000 	lui	v0,0x8000
800004a4:	24421ecc 	addiu	v0,v0,7884
800004a8:	3c058000 	lui	a1,0x8000
800004ac:	afa20010 	sw	v0,16(sp)
800004b0:	00003825 	move	a3,zero
800004b4:	00003025 	move	a2,zero
800004b8:	24a50440 	addiu	a1,a1,1088
800004bc:	0c0006a6 	jal	80001a98 <thread_create>
800004c0:	27a40018 	addiu	a0,sp,24
800004c4:	10400013 	beqz	v0,80000514 <kernel_main+0x94>
800004c8:	00402825 	move	a1,v0
800004cc:	2c420006 	sltiu	v0,v0,6
800004d0:	1040001c 	beqz	v0,80000544 <kernel_main+0xc4>
800004d4:	3c068000 	lui	a2,0x8000
800004d8:	3c038000 	lui	v1,0x8000
800004dc:	00051080 	sll	v0,a1,0x2
800004e0:	24631ff0 	addiu	v1,v1,8176
800004e4:	00431021 	addu	v0,v0,v1
800004e8:	8c460000 	lw	a2,0(v0)
800004ec:	3c048000 	lui	a0,0x8000
800004f0:	0c0001be 	jal	800006f8 <printk>
800004f4:	24841ed4 	addiu	a0,a0,7892
800004f8:	3c048000 	lui	a0,0x8000
800004fc:	0c0003bc 	jal	80000ef0 <puts>
80000500:	24841f08 	addiu	a0,a0,7944
80000504:	3c048000 	lui	a0,0x8000
80000508:	0c0003bc 	jal	80000ef0 <puts>
8000050c:	24841f20 	addiu	a0,a0,7968
80000510:	00000028 	0x28
80000514:	0c00068d 	jal	80001a34 <scheduler_schedule_next>
80000518:	00000000 	nop
8000051c:	3c048000 	lui	a0,0x8000
80000520:	0c0001be 	jal	800006f8 <printk>
80000524:	24841f38 	addiu	a0,a0,7992
80000528:	3c048000 	lui	a0,0x8000
8000052c:	0c0003bc 	jal	80000ef0 <puts>
80000530:	24841f68 	addiu	a0,a0,8040
80000534:	00000028 	0x28
80000538:	8fbf0024 	lw	ra,36(sp)
8000053c:	03e00008 	jr	ra
80000540:	27bd0028 	addiu	sp,sp,40
80000544:	1000ffe9 	b	800004ec <kernel_main+0x6c>
80000548:	24c61ebc 	addiu	a2,a2,7868
8000054c:	00000000 	nop

80000550 <debug_dump_function>:
80000550:	27bdffd8 	addiu	sp,sp,-40
80000554:	afb2001c 	sw	s2,28(sp)
80000558:	00c09025 	move	s2,a2
8000055c:	00803025 	move	a2,a0
80000560:	3c048000 	lui	a0,0x8000
80000564:	24842010 	addiu	a0,a0,8208
80000568:	afb00014 	sw	s0,20(sp)
8000056c:	afbf0024 	sw	ra,36(sp)
80000570:	afb30020 	sw	s3,32(sp)
80000574:	afb10018 	sw	s1,24(sp)
80000578:	0c0001be 	jal	800006f8 <printk>
8000057c:	00a08025 	move	s0,a1
80000580:	1240000a 	beqz	s2,800005ac <debug_dump_function+0x5c>
80000584:	3c138000 	lui	s3,0x8000
80000588:	00008825 	move	s1,zero
8000058c:	2673201c 	addiu	s3,s3,8220
80000590:	8e060000 	lw	a2,0(s0)
80000594:	02002825 	move	a1,s0
80000598:	02602025 	move	a0,s3
8000059c:	0c0001be 	jal	800006f8 <printk>
800005a0:	26310001 	addiu	s1,s1,1
800005a4:	1651fffa 	bne	s2,s1,80000590 <debug_dump_function+0x40>
800005a8:	26100004 	addiu	s0,s0,4
800005ac:	8fbf0024 	lw	ra,36(sp)
800005b0:	8fb30020 	lw	s3,32(sp)
800005b4:	8fb2001c 	lw	s2,28(sp)
800005b8:	8fb10018 	lw	s1,24(sp)
800005bc:	8fb00014 	lw	s0,20(sp)
800005c0:	03e00008 	jr	ra
800005c4:	27bd0028 	addiu	sp,sp,40
	...

800005d0 <debug_get_base_memory_size>:
800005d0:	3c028000 	lui	v0,0x8000
800005d4:	24425f84 	addiu	v0,v0,24452
800005d8:	90420001 	lbu	v0,1(v0)
800005dc:	2403ffff 	li	v1,-1
800005e0:	00021600 	sll	v0,v0,0x18
800005e4:	00021603 	sra	v0,v0,0x18
800005e8:	1043000e 	beq	v0,v1,80000624 <debug_get_base_memory_size+0x54>
800005ec:	3c058000 	lui	a1,0x8000
800005f0:	00001825 	move	v1,zero
800005f4:	24a55f85 	addiu	a1,a1,24453
800005f8:	2406ffff 	li	a2,-1
800005fc:	00601025 	move	v0,v1
80000600:	24630400 	addiu	v1,v1,1024
80000604:	00a32021 	addu	a0,a1,v1
80000608:	90840000 	lbu	a0,0(a0)
8000060c:	00042600 	sll	a0,a0,0x18
80000610:	00042603 	sra	a0,a0,0x18
80000614:	5486fffa 	bnel	a0,a2,80000600 <debug_get_base_memory_size+0x30>
80000618:	00601025 	move	v0,v1
8000061c:	03e00008 	jr	ra
80000620:	00000000 	nop
80000624:	03e00008 	jr	ra
80000628:	2402fc00 	li	v0,-1024
8000062c:	00000000 	nop

80000630 <print_int>:
80000630:	27bdffc8 	addiu	sp,sp,-56
80000634:	27a90031 	addiu	t1,sp,49
80000638:	01201025 	move	v0,t1
8000063c:	a3a00031 	sb	zero,49(sp)
80000640:	0086001b 	divu	zero,a0,a2
80000644:	00000000 	nop
80000648:	00c001f4 	teq	a2,zero,0x7
8000064c:	2442ffff 	addiu	v0,v0,-1
80000650:	0086402b 	sltu	t0,a0,a2
80000654:	01225023 	subu	t2,t1,v0
80000658:	00001810 	mfhi	v1
8000065c:	00a31821 	addu	v1,a1,v1
80000660:	80630000 	lb	v1,0(v1)
80000664:	00002012 	mflo	a0
80000668:	1100fff5 	beqz	t0,80000640 <print_int+0x10>
8000066c:	a0430000 	sb	v1,0(v0)
80000670:	24040010 	li	a0,16
80000674:	10c4000a 	beq	a2,a0,800006a0 <print_int+0x70>
80000678:	29440008 	slti	a0,t2,8
8000067c:	10600006 	beqz	v1,80000698 <print_int+0x68>
80000680:	00000000 	nop
80000684:	3c049000 	lui	a0,0x9000
80000688:	a0830000 	sb	v1,0(a0)
8000068c:	80430001 	lb	v1,1(v0)
80000690:	1460fffd 	bnez	v1,80000688 <print_int+0x58>
80000694:	24420001 	addiu	v0,v0,1
80000698:	03e00008 	jr	ra
8000069c:	27bd0038 	addiu	sp,sp,56
800006a0:	1080fff6 	beqz	a0,8000067c <print_int+0x4c>
800006a4:	00000000 	nop
800006a8:	10e0fff4 	beqz	a3,8000067c <print_int+0x4c>
800006ac:	00000000 	nop
800006b0:	00401825 	move	v1,v0
800006b4:	24050030 	li	a1,48
800006b8:	2463ffff 	addiu	v1,v1,-1
800006bc:	01232023 	subu	a0,t1,v1
800006c0:	2c840008 	sltiu	a0,a0,8
800006c4:	1480fffc 	bnez	a0,800006b8 <print_int+0x88>
800006c8:	a0650000 	sb	a1,0(v1)
800006cc:	25430001 	addiu	v1,t2,1
800006d0:	2c630009 	sltiu	v1,v1,9
800006d4:	14600004 	bnez	v1,800006e8 <print_int+0xb8>
800006d8:	2404ffff 	li	a0,-1
800006dc:	00441021 	addu	v0,v0,a0
800006e0:	1000ffe8 	b	80000684 <print_int+0x54>
800006e4:	24030030 	li	v1,48
800006e8:	2544fff8 	addiu	a0,t2,-8
800006ec:	00441021 	addu	v0,v0,a0
800006f0:	1000ffe4 	b	80000684 <print_int+0x54>
800006f4:	24030030 	li	v1,48

800006f8 <printk>:
800006f8:	27bdff78 	addiu	sp,sp,-136
800006fc:	afbf0084 	sw	ra,132(sp)
80000700:	afbe0080 	sw	s8,128(sp)
80000704:	afb7007c 	sw	s7,124(sp)
80000708:	afb60078 	sw	s6,120(sp)
8000070c:	afb50074 	sw	s5,116(sp)
80000710:	afb40070 	sw	s4,112(sp)
80000714:	afb3006c 	sw	s3,108(sp)
80000718:	afb20068 	sw	s2,104(sp)
8000071c:	afb10064 	sw	s1,100(sp)
80000720:	afb00060 	sw	s0,96(sp)
80000724:	afa5008c 	sw	a1,140(sp)
80000728:	afa60090 	sw	a2,144(sp)
8000072c:	afa70094 	sw	a3,148(sp)
80000730:	80820000 	lb	v0,0(a0)
80000734:	27a3008c 	addiu	v1,sp,140
80000738:	10400013 	beqz	v0,80000788 <printk+0x90>
8000073c:	afa30054 	sw	v1,84(sp)
80000740:	3c118000 	lui	s1,0x8000
80000744:	3c128000 	lui	s2,0x8000
80000748:	3c138000 	lui	s3,0x8000
8000074c:	8e342064 	lw	s4,8292(s1)
80000750:	8e562078 	lw	s6,8312(s2)
80000754:	8e752084 	lw	s5,8324(s3)
80000758:	00808025 	move	s0,a0
8000075c:	3c1e8000 	lui	s8,0x8000
80000760:	3c178000 	lui	s7,0x8000
80000764:	24030025 	li	v1,37
80000768:	10430013 	beq	v0,v1,800007b8 <printk+0xc0>
8000076c:	26060001 	addiu	a2,s0,1
80000770:	3c039000 	lui	v1,0x9000
80000774:	a0620000 	sb	v0,0(v1)
80000778:	00c08025 	move	s0,a2
8000077c:	82020000 	lb	v0,0(s0)
80000780:	1440fff9 	bnez	v0,80000768 <printk+0x70>
80000784:	24030025 	li	v1,37
80000788:	8fbf0084 	lw	ra,132(sp)
8000078c:	8fbe0080 	lw	s8,128(sp)
80000790:	8fb7007c 	lw	s7,124(sp)
80000794:	8fb60078 	lw	s6,120(sp)
80000798:	8fb50074 	lw	s5,116(sp)
8000079c:	8fb40070 	lw	s4,112(sp)
800007a0:	8fb3006c 	lw	s3,108(sp)
800007a4:	8fb20068 	lw	s2,104(sp)
800007a8:	8fb10064 	lw	s1,100(sp)
800007ac:	8fb00060 	lw	s0,96(sp)
800007b0:	03e00008 	jr	ra
800007b4:	27bd0088 	addiu	sp,sp,136
800007b8:	82040001 	lb	a0,1(s0)
800007bc:	54820005 	bnel	a0,v0,800007d4 <printk+0xdc>
800007c0:	24020073 	li	v0,115
800007c4:	3c039000 	lui	v1,0x9000
800007c8:	a0620000 	sb	v0,0(v1)
800007cc:	82040001 	lb	a0,1(s0)
800007d0:	24020073 	li	v0,115
800007d4:	1082007f 	beq	a0,v0,800009d4 <printk+0x2dc>
800007d8:	24020075 	li	v0,117
800007dc:	1082008e 	beq	a0,v0,80000a18 <printk+0x320>
800007e0:	8fa20054 	lw	v0,84(sp)
800007e4:	24020078 	li	v0,120
800007e8:	108200b3 	beq	a0,v0,80000ab8 <printk+0x3c0>
800007ec:	8fa20054 	lw	v0,84(sp)
800007f0:	24020058 	li	v0,88
800007f4:	108200d2 	beq	a0,v0,80000b40 <printk+0x448>
800007f8:	8fa20054 	lw	v0,84(sp)
800007fc:	24020064 	li	v0,100
80000800:	108200f0 	beq	a0,v0,80000bc4 <printk+0x4cc>
80000804:	8fa30054 	lw	v1,84(sp)
80000808:	24020063 	li	v0,99
8000080c:	14820009 	bne	a0,v0,80000834 <printk+0x13c>
80000810:	24020070 	li	v0,112
80000814:	8fa20054 	lw	v0,84(sp)
80000818:	80430000 	lb	v1,0(v0)
8000081c:	24420004 	addiu	v0,v0,4
80000820:	afa20054 	sw	v0,84(sp)
80000824:	3c029000 	lui	v0,0x9000
80000828:	a0430000 	sb	v1,0(v0)
8000082c:	82040001 	lb	a0,1(s0)
80000830:	24020070 	li	v0,112
80000834:	10820016 	beq	a0,v0,80000890 <printk+0x198>
80000838:	26222064 	addiu	v0,s1,8292
8000083c:	24020061 	li	v0,97
80000840:	1482ffce 	bne	a0,v0,8000077c <printk+0x84>
80000844:	24d00001 	addiu	s0,a2,1
80000848:	8fa20054 	lw	v0,84(sp)
8000084c:	26232064 	addiu	v1,s1,8292
80000850:	8c690004 	lw	t1,4(v1)
80000854:	8c680008 	lw	t0,8(v1)
80000858:	8c440000 	lw	a0,0(v0)
8000085c:	8c63000c 	lw	v1,12(v1)
80000860:	24420004 	addiu	v0,v0,4
80000864:	24070001 	li	a3,1
80000868:	24060010 	li	a2,16
8000086c:	27a50010 	addiu	a1,sp,16
80000870:	afa20054 	sw	v0,84(sp)
80000874:	afb40010 	sw	s4,16(sp)
80000878:	afa90014 	sw	t1,20(sp)
8000087c:	afa80018 	sw	t0,24(sp)
80000880:	0c00018c 	jal	80000630 <print_int>
80000884:	afa3001c 	sw	v1,28(sp)
80000888:	1000ffbd 	b	80000780 <printk+0x88>
8000088c:	82020000 	lb	v0,0(s0)
80000890:	8fa30054 	lw	v1,84(sp)
80000894:	8c490004 	lw	t1,4(v0)
80000898:	8c480008 	lw	t0,8(v0)
8000089c:	8c47000c 	lw	a3,12(v0)
800008a0:	8e2a2064 	lw	t2,8292(s1)
800008a4:	82020002 	lb	v0,2(s0)
800008a8:	2405004c 	li	a1,76
800008ac:	8c640000 	lw	a0,0(v1)
800008b0:	26060002 	addiu	a2,s0,2
800008b4:	afaa0044 	sw	t2,68(sp)
800008b8:	afa90048 	sw	t1,72(sp)
800008bc:	afa8004c 	sw	t0,76(sp)
800008c0:	afa70050 	sw	a3,80(sp)
800008c4:	1045010c 	beq	v0,a1,80000cf8 <printk+0x600>
800008c8:	24630004 	addiu	v1,v1,4
800008cc:	24050054 	li	a1,84
800008d0:	14450028 	bne	v0,a1,80000974 <printk+0x27c>
800008d4:	3c059000 	lui	a1,0x9000
800008d8:	afa30054 	sw	v1,84(sp)
800008dc:	27c32034 	addiu	v1,s8,8244
800008e0:	a0a20000 	sb	v0,0(a1)
800008e4:	80620001 	lb	v0,1(v1)
800008e8:	1440fffd 	bnez	v0,800008e0 <printk+0x1e8>
800008ec:	24630001 	addiu	v1,v1,1
800008f0:	2402000a 	li	v0,10
800008f4:	a0a20000 	sb	v0,0(a1)
800008f8:	26e32044 	addiu	v1,s7,8260
800008fc:	2402004e 	li	v0,78
80000900:	3c059000 	lui	a1,0x9000
80000904:	a0a20000 	sb	v0,0(a1)
80000908:	80620001 	lb	v0,1(v1)
8000090c:	1440fffd 	bnez	v0,80000904 <printk+0x20c>
80000910:	24630001 	addiu	v1,v1,1
80000914:	2402000a 	li	v0,10
80000918:	a0a20000 	sb	v0,0(a1)
8000091c:	80820000 	lb	v0,0(a0)
80000920:	00801825 	move	v1,a0
80000924:	10400005 	beqz	v0,8000093c <printk+0x244>
80000928:	3c059000 	lui	a1,0x9000
8000092c:	a0a20000 	sb	v0,0(a1)
80000930:	80620001 	lb	v0,1(v1)
80000934:	1440fffd 	bnez	v0,8000092c <printk+0x234>
80000938:	24630001 	addiu	v1,v1,1
8000093c:	3c029000 	lui	v0,0x9000
80000940:	2403000a 	li	v1,10
80000944:	a0430000 	sb	v1,0(v0)
80000948:	8c820020 	lw	v0,32(a0)
8000094c:	144000c6 	bnez	v0,80000c68 <printk+0x570>
80000950:	3c028000 	lui	v0,0x8000
80000954:	8c850024 	lw	a1,36(a0)
80000958:	3c048000 	lui	a0,0x8000
8000095c:	24842058 	addiu	a0,a0,8280
80000960:	0c0001be 	jal	800006f8 <printk>
80000964:	afa60058 	sw	a2,88(sp)
80000968:	8fa60058 	lw	a2,88(sp)
8000096c:	1000ffb3 	b	8000083c <printk+0x144>
80000970:	82040002 	lb	a0,2(s0)
80000974:	afa30054 	sw	v1,84(sp)
80000978:	24030030 	li	v1,48
8000097c:	24070078 	li	a3,120
80000980:	a0a30000 	sb	v1,0(a1)
80000984:	27a20041 	addiu	v0,sp,65
80000988:	a0a70000 	sb	a3,0(a1)
8000098c:	27a30010 	addiu	v1,sp,16
80000990:	a3a00041 	sb	zero,65(sp)
80000994:	3085000f 	andi	a1,a0,0xf
80000998:	00652821 	addu	a1,v1,a1
8000099c:	80a50034 	lb	a1,52(a1)
800009a0:	2c870010 	sltiu	a3,a0,16
800009a4:	2442ffff 	addiu	v0,v0,-1
800009a8:	00042102 	srl	a0,a0,0x4
800009ac:	10e0fff9 	beqz	a3,80000994 <printk+0x29c>
800009b0:	a0450000 	sb	a1,0(v0)
800009b4:	10a0ff70 	beqz	a1,80000778 <printk+0x80>
800009b8:	3c039000 	lui	v1,0x9000
800009bc:	a0650000 	sb	a1,0(v1)
800009c0:	80450001 	lb	a1,1(v0)
800009c4:	14a0fffd 	bnez	a1,800009bc <printk+0x2c4>
800009c8:	24420001 	addiu	v0,v0,1
800009cc:	1000ff6b 	b	8000077c <printk+0x84>
800009d0:	00c08025 	move	s0,a2
800009d4:	8fa20054 	lw	v0,84(sp)
800009d8:	8c430000 	lw	v1,0(v0)
800009dc:	24420004 	addiu	v0,v0,4
800009e0:	afa20054 	sw	v0,84(sp)
800009e4:	80620000 	lb	v0,0(v1)
800009e8:	5040ff95 	beqzl	v0,80000840 <printk+0x148>
800009ec:	24020061 	li	v0,97
800009f0:	3c049000 	lui	a0,0x9000
800009f4:	a0820000 	sb	v0,0(a0)
800009f8:	80620001 	lb	v0,1(v1)
800009fc:	1440fffd 	bnez	v0,800009f4 <printk+0x2fc>
80000a00:	24630001 	addiu	v1,v1,1
80000a04:	82040001 	lb	a0,1(s0)
80000a08:	24020075 	li	v0,117
80000a0c:	1482ff76 	bne	a0,v0,800007e8 <printk+0xf0>
80000a10:	24020078 	li	v0,120
80000a14:	8fa20054 	lw	v0,84(sp)
80000a18:	26432078 	addiu	v1,s2,8312
80000a1c:	8e472078 	lw	a3,8312(s2)
80000a20:	8c650004 	lw	a1,4(v1)
80000a24:	94630008 	lhu	v1,8(v1)
80000a28:	8c490000 	lw	t1,0(v0)
80000a2c:	3c0bcccc 	lui	t3,0xcccc
80000a30:	24420004 	addiu	v0,v0,4
80000a34:	afa70044 	sw	a3,68(sp)
80000a38:	a7a3004c 	sh	v1,76(sp)
80000a3c:	afa20054 	sw	v0,84(sp)
80000a40:	afa50048 	sw	a1,72(sp)
80000a44:	a3a00041 	sb	zero,65(sp)
80000a48:	27a70041 	addiu	a3,sp,65
80000a4c:	27a30010 	addiu	v1,sp,16
80000a50:	356bcccd 	ori	t3,t3,0xcccd
80000a54:	012b0019 	multu	t1,t3
80000a58:	00002810 	mfhi	a1
80000a5c:	24e7ffff 	addiu	a3,a3,-1
80000a60:	2d2a000a 	sltiu	t2,t1,10
80000a64:	000528c2 	srl	a1,a1,0x3
80000a68:	00051080 	sll	v0,a1,0x2
80000a6c:	00451021 	addu	v0,v0,a1
80000a70:	00021040 	sll	v0,v0,0x1
80000a74:	01221023 	subu	v0,t1,v0
80000a78:	00621021 	addu	v0,v1,v0
80000a7c:	80480034 	lb	t0,52(v0)
80000a80:	00a04825 	move	t1,a1
80000a84:	1140fff3 	beqz	t2,80000a54 <printk+0x35c>
80000a88:	a0e80000 	sb	t0,0(a3)
80000a8c:	1100ff5b 	beqz	t0,800007fc <printk+0x104>
80000a90:	3c029000 	lui	v0,0x9000
80000a94:	a0480000 	sb	t0,0(v0)
80000a98:	80e80001 	lb	t0,1(a3)
80000a9c:	1500fffd 	bnez	t0,80000a94 <printk+0x39c>
80000aa0:	24e70001 	addiu	a3,a3,1
80000aa4:	82040001 	lb	a0,1(s0)
80000aa8:	24020078 	li	v0,120
80000aac:	1482ff51 	bne	a0,v0,800007f4 <printk+0xfc>
80000ab0:	24020058 	li	v0,88
80000ab4:	8fa20054 	lw	v0,84(sp)
80000ab8:	26232064 	addiu	v1,s1,8292
80000abc:	8c680004 	lw	t0,4(v1)
80000ac0:	8c650008 	lw	a1,8(v1)
80000ac4:	8e292064 	lw	t1,8292(s1)
80000ac8:	8c63000c 	lw	v1,12(v1)
80000acc:	8c470000 	lw	a3,0(v0)
80000ad0:	24420004 	addiu	v0,v0,4
80000ad4:	afa20054 	sw	v0,84(sp)
80000ad8:	afa30050 	sw	v1,80(sp)
80000adc:	afa90044 	sw	t1,68(sp)
80000ae0:	afa80048 	sw	t0,72(sp)
80000ae4:	afa5004c 	sw	a1,76(sp)
80000ae8:	a3a00041 	sb	zero,65(sp)
80000aec:	27a20041 	addiu	v0,sp,65
80000af0:	27a30010 	addiu	v1,sp,16
80000af4:	30e5000f 	andi	a1,a3,0xf
80000af8:	00652821 	addu	a1,v1,a1
80000afc:	80a50034 	lb	a1,52(a1)
80000b00:	2ce80010 	sltiu	t0,a3,16
80000b04:	2442ffff 	addiu	v0,v0,-1
80000b08:	00073902 	srl	a3,a3,0x4
80000b0c:	1100fff9 	beqz	t0,80000af4 <printk+0x3fc>
80000b10:	a0450000 	sb	a1,0(v0)
80000b14:	10a0ff49 	beqz	a1,8000083c <printk+0x144>
80000b18:	3c039000 	lui	v1,0x9000
80000b1c:	a0650000 	sb	a1,0(v1)
80000b20:	80450001 	lb	a1,1(v0)
80000b24:	14a0fffd 	bnez	a1,80000b1c <printk+0x424>
80000b28:	24420001 	addiu	v0,v0,1
80000b2c:	82040001 	lb	a0,1(s0)
80000b30:	24020058 	li	v0,88
80000b34:	1482ff32 	bne	a0,v0,80000800 <printk+0x108>
80000b38:	24020064 	li	v0,100
80000b3c:	8fa20054 	lw	v0,84(sp)
80000b40:	26632084 	addiu	v1,s3,8324
80000b44:	8c680004 	lw	t0,4(v1)
80000b48:	8c650008 	lw	a1,8(v1)
80000b4c:	8c63000c 	lw	v1,12(v1)
80000b50:	8c470000 	lw	a3,0(v0)
80000b54:	24420004 	addiu	v0,v0,4
80000b58:	afa20054 	sw	v0,84(sp)
80000b5c:	afa30050 	sw	v1,80(sp)
80000b60:	afb50044 	sw	s5,68(sp)
80000b64:	afa80048 	sw	t0,72(sp)
80000b68:	afa5004c 	sw	a1,76(sp)
80000b6c:	a3a00041 	sb	zero,65(sp)
80000b70:	27a20041 	addiu	v0,sp,65
80000b74:	27a30010 	addiu	v1,sp,16
80000b78:	30e5000f 	andi	a1,a3,0xf
80000b7c:	00652821 	addu	a1,v1,a1
80000b80:	80a50034 	lb	a1,52(a1)
80000b84:	2ce80010 	sltiu	t0,a3,16
80000b88:	2442ffff 	addiu	v0,v0,-1
80000b8c:	00073902 	srl	a3,a3,0x4
80000b90:	1100fff9 	beqz	t0,80000b78 <printk+0x480>
80000b94:	a0450000 	sb	a1,0(v0)
80000b98:	10a0ff25 	beqz	a1,80000830 <printk+0x138>
80000b9c:	3c039000 	lui	v1,0x9000
80000ba0:	a0650000 	sb	a1,0(v1)
80000ba4:	80450001 	lb	a1,1(v0)
80000ba8:	14a0fffd 	bnez	a1,80000ba0 <printk+0x4a8>
80000bac:	24420001 	addiu	v0,v0,1
80000bb0:	82040001 	lb	a0,1(s0)
80000bb4:	24020064 	li	v0,100
80000bb8:	1482ff14 	bne	a0,v0,8000080c <printk+0x114>
80000bbc:	24020063 	li	v0,99
80000bc0:	8fa30054 	lw	v1,84(sp)
80000bc4:	8c620000 	lw	v0,0(v1)
80000bc8:	24630004 	addiu	v1,v1,4
80000bcc:	04410005 	bgez	v0,80000be4 <printk+0x4ec>
80000bd0:	afa30054 	sw	v1,84(sp)
80000bd4:	3c039000 	lui	v1,0x9000
80000bd8:	2404002d 	li	a0,45
80000bdc:	a0640000 	sb	a0,0(v1)
80000be0:	00021023 	negu	v0,v0
80000be4:	26432078 	addiu	v1,s2,8312
80000be8:	8c640004 	lw	a0,4(v1)
80000bec:	94630008 	lhu	v1,8(v1)
80000bf0:	3c09cccc 	lui	t1,0xcccc
80000bf4:	afb60044 	sw	s6,68(sp)
80000bf8:	a7a3004c 	sh	v1,76(sp)
80000bfc:	afa40048 	sw	a0,72(sp)
80000c00:	a3a00041 	sb	zero,65(sp)
80000c04:	27a70041 	addiu	a3,sp,65
80000c08:	27a30010 	addiu	v1,sp,16
80000c0c:	3529cccd 	ori	t1,t1,0xcccd
80000c10:	00490019 	multu	v0,t1
80000c14:	00002010 	mfhi	a0
80000c18:	2c48000a 	sltiu	t0,v0,10
80000c1c:	24e7ffff 	addiu	a3,a3,-1
80000c20:	000420c2 	srl	a0,a0,0x3
80000c24:	00042880 	sll	a1,a0,0x2
80000c28:	00a42821 	addu	a1,a1,a0
80000c2c:	00052840 	sll	a1,a1,0x1
80000c30:	00451023 	subu	v0,v0,a1
80000c34:	00621021 	addu	v0,v1,v0
80000c38:	80450034 	lb	a1,52(v0)
80000c3c:	00801025 	move	v0,a0
80000c40:	1100fff3 	beqz	t0,80000c10 <printk+0x518>
80000c44:	a0e50000 	sb	a1,0(a3)
80000c48:	10a00005 	beqz	a1,80000c60 <printk+0x568>
80000c4c:	3c029000 	lui	v0,0x9000
80000c50:	a0450000 	sb	a1,0(v0)
80000c54:	80e50001 	lb	a1,1(a3)
80000c58:	14a0fffd 	bnez	a1,80000c50 <printk+0x558>
80000c5c:	24e70001 	addiu	a3,a3,1
80000c60:	1000fee9 	b	80000808 <printk+0x110>
80000c64:	82040001 	lb	a0,1(s0)
80000c68:	2442204c 	addiu	v0,v0,8268
80000c6c:	24030041 	li	v1,65
80000c70:	3c059000 	lui	a1,0x9000
80000c74:	a0a30000 	sb	v1,0(a1)
80000c78:	80430001 	lb	v1,1(v0)
80000c7c:	1460fffd 	bnez	v1,80000c74 <printk+0x57c>
80000c80:	24420001 	addiu	v0,v0,1
80000c84:	2402000a 	li	v0,10
80000c88:	a0a20000 	sb	v0,0(a1)
80000c8c:	24020030 	li	v0,48
80000c90:	a0a20000 	sb	v0,0(a1)
80000c94:	24020078 	li	v0,120
80000c98:	a0a20000 	sb	v0,0(a1)
80000c9c:	8c870020 	lw	a3,32(a0)
80000ca0:	27a20041 	addiu	v0,sp,65
80000ca4:	a3a00041 	sb	zero,65(sp)
80000ca8:	27a30010 	addiu	v1,sp,16
80000cac:	30e5000f 	andi	a1,a3,0xf
80000cb0:	00652821 	addu	a1,v1,a1
80000cb4:	80a50034 	lb	a1,52(a1)
80000cb8:	2ce80010 	sltiu	t0,a3,16
80000cbc:	2442ffff 	addiu	v0,v0,-1
80000cc0:	00073902 	srl	a3,a3,0x4
80000cc4:	1100fff9 	beqz	t0,80000cac <printk+0x5b4>
80000cc8:	a0450000 	sb	a1,0(v0)
80000ccc:	10a00005 	beqz	a1,80000ce4 <printk+0x5ec>
80000cd0:	3c039000 	lui	v1,0x9000
80000cd4:	a0650000 	sb	a1,0(v1)
80000cd8:	80450001 	lb	a1,1(v0)
80000cdc:	14a0fffd 	bnez	a1,80000cd4 <printk+0x5dc>
80000ce0:	24420001 	addiu	v0,v0,1
80000ce4:	3c029000 	lui	v0,0x9000
80000ce8:	2403000a 	li	v1,10
80000cec:	a0430000 	sb	v1,0(v0)
80000cf0:	1000ff19 	b	80000958 <printk+0x260>
80000cf4:	8c850024 	lw	a1,36(a0)
80000cf8:	afa30054 	sw	v1,84(sp)
80000cfc:	3c059000 	lui	a1,0x9000
80000d00:	24020030 	li	v0,48
80000d04:	24030078 	li	v1,120
80000d08:	a0a20000 	sb	v0,0(a1)
80000d0c:	00803825 	move	a3,a0
80000d10:	a0a30000 	sb	v1,0(a1)
80000d14:	27a20041 	addiu	v0,sp,65
80000d18:	27a30010 	addiu	v1,sp,16
80000d1c:	a3a00041 	sb	zero,65(sp)
80000d20:	30e5000f 	andi	a1,a3,0xf
80000d24:	00652821 	addu	a1,v1,a1
80000d28:	80a50034 	lb	a1,52(a1)
80000d2c:	2ce80010 	sltiu	t0,a3,16
80000d30:	2442ffff 	addiu	v0,v0,-1
80000d34:	00073902 	srl	a3,a3,0x4
80000d38:	1100fff9 	beqz	t0,80000d20 <printk+0x628>
80000d3c:	a0450000 	sb	a1,0(v0)
80000d40:	10a00005 	beqz	a1,80000d58 <printk+0x660>
80000d44:	3c079000 	lui	a3,0x9000
80000d48:	a0e50000 	sb	a1,0(a3)
80000d4c:	80450001 	lb	a1,1(v0)
80000d50:	14a0fffd 	bnez	a1,80000d48 <printk+0x650>
80000d54:	24420001 	addiu	v0,v0,1
80000d58:	8c890004 	lw	t1,4(a0)
80000d5c:	00002825 	move	a1,zero
80000d60:	1089004b 	beq	a0,t1,80000e90 <printk+0x798>
80000d64:	01201025 	move	v0,t1
80000d68:	8c420004 	lw	v0,4(v0)
80000d6c:	00a04025 	move	t0,a1
80000d70:	1444fffd 	bne	v0,a0,80000d68 <printk+0x670>
80000d74:	24a50001 	addiu	a1,a1,1
80000d78:	10a00045 	beqz	a1,80000e90 <printk+0x798>
80000d7c:	2404005b 	li	a0,91
80000d80:	3c029000 	lui	v0,0x9000
80000d84:	3c0bcccc 	lui	t3,0xcccc
80000d88:	a0440000 	sb	a0,0(v0)
80000d8c:	27a70041 	addiu	a3,sp,65
80000d90:	a3a00041 	sb	zero,65(sp)
80000d94:	356bcccd 	ori	t3,t3,0xcccd
80000d98:	00ab0019 	multu	a1,t3
80000d9c:	00002010 	mfhi	a0
80000da0:	24e7ffff 	addiu	a3,a3,-1
80000da4:	2caa000a 	sltiu	t2,a1,10
80000da8:	000420c2 	srl	a0,a0,0x3
80000dac:	00041080 	sll	v0,a0,0x2
80000db0:	00441021 	addu	v0,v0,a0
80000db4:	00021040 	sll	v0,v0,0x1
80000db8:	00a21023 	subu	v0,a1,v0
80000dbc:	00621021 	addu	v0,v1,v0
80000dc0:	80420034 	lb	v0,52(v0)
80000dc4:	00802825 	move	a1,a0
80000dc8:	1140fff3 	beqz	t2,80000d98 <printk+0x6a0>
80000dcc:	a0e20000 	sb	v0,0(a3)
80000dd0:	10400005 	beqz	v0,80000de8 <printk+0x6f0>
80000dd4:	3c049000 	lui	a0,0x9000
80000dd8:	a0820000 	sb	v0,0(a0)
80000ddc:	80e20001 	lb	v0,1(a3)
80000de0:	1440fffd 	bnez	v0,80000dd8 <printk+0x6e0>
80000de4:	24e70001 	addiu	a3,a3,1
80000de8:	3c029000 	lui	v0,0x9000
80000dec:	2404003a 	li	a0,58
80000df0:	a0440000 	sb	a0,0(v0)
80000df4:	24040020 	li	a0,32
80000df8:	00005825 	move	t3,zero
80000dfc:	a0440000 	sb	a0,0(v0)
80000e00:	3c0a9000 	lui	t2,0x9000
80000e04:	240d0030 	li	t5,48
80000e08:	240c0078 	li	t4,120
80000e0c:	240e002d 	li	t6,45
80000e10:	a14d0000 	sb	t5,0(t2)
80000e14:	01202825 	move	a1,t1
80000e18:	a14c0000 	sb	t4,0(t2)
80000e1c:	27a20041 	addiu	v0,sp,65
80000e20:	a3a00041 	sb	zero,65(sp)
80000e24:	30a4000f 	andi	a0,a1,0xf
80000e28:	00642021 	addu	a0,v1,a0
80000e2c:	80840034 	lb	a0,52(a0)
80000e30:	2ca70010 	sltiu	a3,a1,16
80000e34:	2442ffff 	addiu	v0,v0,-1
80000e38:	00052902 	srl	a1,a1,0x4
80000e3c:	10e0fff9 	beqz	a3,80000e24 <printk+0x72c>
80000e40:	a0440000 	sb	a0,0(v0)
80000e44:	1080001c 	beqz	a0,80000eb8 <printk+0x7c0>
80000e48:	00000000 	nop
80000e4c:	a1440000 	sb	a0,0(t2)
80000e50:	80440001 	lb	a0,1(v0)
80000e54:	1480fffd 	bnez	a0,80000e4c <printk+0x754>
80000e58:	24420001 	addiu	v0,v0,1
80000e5c:	51680008 	beql	t3,t0,80000e80 <printk+0x788>
80000e60:	3c029000 	lui	v0,0x9000
80000e64:	a14e0000 	sb	t6,0(t2)
80000e68:	8d290004 	lw	t1,4(t1)
80000e6c:	11680003 	beq	t3,t0,80000e7c <printk+0x784>
80000e70:	25620001 	addiu	v0,t3,1
80000e74:	1000ffe6 	b	80000e10 <printk+0x718>
80000e78:	00405825 	move	t3,v0
80000e7c:	3c029000 	lui	v0,0x9000
80000e80:	2403005d 	li	v1,93
80000e84:	a0430000 	sb	v1,0(v0)
80000e88:	1000fe6c 	b	8000083c <printk+0x144>
80000e8c:	82040002 	lb	a0,2(s0)
80000e90:	3c028000 	lui	v0,0x8000
80000e94:	2442202c 	addiu	v0,v0,8236
80000e98:	2403005b 	li	v1,91
80000e9c:	3c049000 	lui	a0,0x9000
80000ea0:	a0830000 	sb	v1,0(a0)
80000ea4:	80430001 	lb	v1,1(v0)
80000ea8:	1460fffd 	bnez	v1,80000ea0 <printk+0x7a8>
80000eac:	24420001 	addiu	v0,v0,1
80000eb0:	1000fe62 	b	8000083c <printk+0x144>
80000eb4:	82040002 	lb	a0,2(s0)
80000eb8:	5168ffec 	beql	t3,t0,80000e6c <printk+0x774>
80000ebc:	8d290004 	lw	t1,4(t1)
80000ec0:	1000ffe8 	b	80000e64 <printk+0x76c>
80000ec4:	00000000 	nop

80000ec8 <print_string>:
80000ec8:	80820000 	lb	v0,0(a0)
80000ecc:	10400006 	beqz	v0,80000ee8 <print_string+0x20>
80000ed0:	00000000 	nop
80000ed4:	3c039000 	lui	v1,0x9000
80000ed8:	a0620000 	sb	v0,0(v1)
80000edc:	80820001 	lb	v0,1(a0)
80000ee0:	1440fffd 	bnez	v0,80000ed8 <print_string+0x10>
80000ee4:	24840001 	addiu	a0,a0,1
80000ee8:	03e00008 	jr	ra
80000eec:	00000000 	nop

80000ef0 <puts>:
80000ef0:	80820000 	lb	v0,0(a0)
80000ef4:	10400005 	beqz	v0,80000f0c <puts+0x1c>
80000ef8:	3c039000 	lui	v1,0x9000
80000efc:	a0620000 	sb	v0,0(v1)
80000f00:	80820001 	lb	v0,1(a0)
80000f04:	1440fffd 	bnez	v0,80000efc <puts+0xc>
80000f08:	24840001 	addiu	a0,a0,1
80000f0c:	3c029000 	lui	v0,0x9000
80000f10:	2403000a 	li	v1,10
80000f14:	a0430000 	sb	v1,0(v0)
80000f18:	03e00008 	jr	ra
80000f1c:	00000000 	nop

80000f20 <new_node>:
80000f20:	27bdffe8 	addiu	sp,sp,-24
80000f24:	afb00010 	sw	s0,16(sp)
80000f28:	00808025 	move	s0,a0
80000f2c:	afbf0014 	sw	ra,20(sp)
80000f30:	0c0005a6 	jal	80001698 <kmalloc>
80000f34:	24040008 	li	a0,8
80000f38:	8fbf0014 	lw	ra,20(sp)
80000f3c:	ac500000 	sw	s0,0(v0)
80000f40:	ac400004 	sw	zero,4(v0)
80000f44:	8fb00010 	lw	s0,16(sp)
80000f48:	03e00008 	jr	ra
80000f4c:	27bd0018 	addiu	sp,sp,24

80000f50 <create_queue>:
80000f50:	27bdffe8 	addiu	sp,sp,-24
80000f54:	afbf0014 	sw	ra,20(sp)
80000f58:	0c0005a6 	jal	80001698 <kmalloc>
80000f5c:	24040008 	li	a0,8
80000f60:	8fbf0014 	lw	ra,20(sp)
80000f64:	ac400004 	sw	zero,4(v0)
80000f68:	ac400000 	sw	zero,0(v0)
80000f6c:	03e00008 	jr	ra
80000f70:	27bd0018 	addiu	sp,sp,24

80000f74 <enqueue>:
80000f74:	27bdffe0 	addiu	sp,sp,-32
80000f78:	afb00014 	sw	s0,20(sp)
80000f7c:	00808025 	move	s0,a0
80000f80:	24040008 	li	a0,8
80000f84:	afb10018 	sw	s1,24(sp)
80000f88:	afbf001c 	sw	ra,28(sp)
80000f8c:	0c0005a6 	jal	80001698 <kmalloc>
80000f90:	00a08825 	move	s1,a1
80000f94:	8e030000 	lw	v1,0(s0)
80000f98:	ac510000 	sw	s1,0(v0)
80000f9c:	10600009 	beqz	v1,80000fc4 <enqueue+0x50>
80000fa0:	ac400004 	sw	zero,4(v0)
80000fa4:	8e030004 	lw	v1,4(s0)
80000fa8:	8fbf001c 	lw	ra,28(sp)
80000fac:	8fb10018 	lw	s1,24(sp)
80000fb0:	ac620004 	sw	v0,4(v1)
80000fb4:	ae020004 	sw	v0,4(s0)
80000fb8:	8fb00014 	lw	s0,20(sp)
80000fbc:	03e00008 	jr	ra
80000fc0:	27bd0020 	addiu	sp,sp,32
80000fc4:	8fbf001c 	lw	ra,28(sp)
80000fc8:	8fb10018 	lw	s1,24(sp)
80000fcc:	ae020004 	sw	v0,4(s0)
80000fd0:	ae020000 	sw	v0,0(s0)
80000fd4:	8fb00014 	lw	s0,20(sp)
80000fd8:	03e00008 	jr	ra
80000fdc:	27bd0020 	addiu	sp,sp,32

80000fe0 <dequeue>:
80000fe0:	8c880000 	lw	t0,0(a0)
80000fe4:	11000024 	beqz	t0,80001078 <dequeue+0x98>
80000fe8:	00803825 	move	a3,a0
80000fec:	00003025 	move	a2,zero
80000ff0:	10000002 	b	80000ffc <dequeue+0x1c>
80000ff4:	01002025 	move	a0,t0
80000ff8:	00402025 	move	a0,v0
80000ffc:	8c830000 	lw	v1,0(a0)
80001000:	10650005 	beq	v1,a1,80001018 <dequeue+0x38>
80001004:	8c820004 	lw	v0,4(a0)
80001008:	1440fffb 	bnez	v0,80000ff8 <dequeue+0x18>
8000100c:	00803025 	move	a2,a0
80001010:	03e00008 	jr	ra
80001014:	00000000 	nop
80001018:	27bdffe8 	addiu	sp,sp,-24
8000101c:	10c0000b 	beqz	a2,8000104c <dequeue+0x6c>
80001020:	afbf0014 	sw	ra,20(sp)
80001024:	acc20004 	sw	v0,4(a2)
80001028:	8c820004 	lw	v0,4(a0)
8000102c:	10400014 	beqz	v0,80001080 <dequeue+0xa0>
80001030:	00000000 	nop
80001034:	0c0005fd 	jal	800017f4 <kfree>
80001038:	00000000 	nop
8000103c:	8fbf0014 	lw	ra,20(sp)
80001040:	24020001 	li	v0,1
80001044:	03e00008 	jr	ra
80001048:	27bd0018 	addiu	sp,sp,24
8000104c:	50400008 	beqzl	v0,80001070 <dequeue+0x90>
80001050:	ace00004 	sw	zero,4(a3)
80001054:	8d020004 	lw	v0,4(t0)
80001058:	0c0005fd 	jal	800017f4 <kfree>
8000105c:	ace20000 	sw	v0,0(a3)
80001060:	8fbf0014 	lw	ra,20(sp)
80001064:	24020001 	li	v0,1
80001068:	03e00008 	jr	ra
8000106c:	27bd0018 	addiu	sp,sp,24
80001070:	1000fff0 	b	80001034 <dequeue+0x54>
80001074:	ace00000 	sw	zero,0(a3)
80001078:	03e00008 	jr	ra
8000107c:	00001025 	move	v0,zero
80001080:	0c0005fd 	jal	800017f4 <kfree>
80001084:	ace60004 	sw	a2,4(a3)
80001088:	8fbf0014 	lw	ra,20(sp)
8000108c:	24020001 	li	v0,1
80001090:	03e00008 	jr	ra
80001094:	27bd0018 	addiu	sp,sp,24

80001098 <get_next_ready>:
80001098:	8c820000 	lw	v0,0(a0)
8000109c:	54400006 	bnezl	v0,800010b8 <get_next_ready+0x20>
800010a0:	8c430000 	lw	v1,0(v0)
800010a4:	1000000c 	b	800010d8 <get_next_ready+0x40>
800010a8:	00000000 	nop
800010ac:	1040000a 	beqz	v0,800010d8 <get_next_ready+0x40>
800010b0:	00000000 	nop
800010b4:	8c430000 	lw	v1,0(v0)
800010b8:	8c640024 	lw	a0,36(v1)
800010bc:	5485fffb 	bnel	a0,a1,800010ac <get_next_ready+0x14>
800010c0:	8c420004 	lw	v0,4(v0)
800010c4:	8c640038 	lw	a0,56(v1)
800010c8:	5480fff8 	bnezl	a0,800010ac <get_next_ready+0x14>
800010cc:	8c420004 	lw	v0,4(v0)
800010d0:	03e00008 	jr	ra
800010d4:	00601025 	move	v0,v1
800010d8:	03e00008 	jr	ra
800010dc:	00000000 	nop

800010e0 <remove_all_dependencies>:
800010e0:	8c820000 	lw	v0,0(a0)
800010e4:	54400006 	bnezl	v0,80001100 <remove_all_dependencies+0x20>
800010e8:	8c430000 	lw	v1,0(v0)
800010ec:	10000009 	b	80001114 <remove_all_dependencies+0x34>
800010f0:	00000000 	nop
800010f4:	10400007 	beqz	v0,80001114 <remove_all_dependencies+0x34>
800010f8:	00000000 	nop
800010fc:	8c430000 	lw	v1,0(v0)
80001100:	8c640038 	lw	a0,56(v1)
80001104:	1485fffb 	bne	a0,a1,800010f4 <remove_all_dependencies+0x14>
80001108:	8c420004 	lw	v0,4(v0)
8000110c:	1440fffb 	bnez	v0,800010fc <remove_all_dependencies+0x1c>
80001110:	ac600038 	sw	zero,56(v1)
80001114:	03e00008 	jr	ra
80001118:	00000000 	nop
8000111c:	00000000 	nop

80001120 <ull_div_and_mod.part.0>:
80001120:	8faf0010 	lw	t7,16(sp)
80001124:	240b0040 	li	t3,64
80001128:	00001825 	move	v1,zero
8000112c:	00004825 	move	t1,zero
80001130:	00001025 	move	v0,zero
80001134:	00006025 	move	t4,zero
80001138:	000357c2 	srl	t2,v1,0x1f
8000113c:	00094040 	sll	t0,t1,0x1
80001140:	01484025 	or	t0,t2,t0
80001144:	00026fc2 	srl	t5,v0,0x1f
80001148:	000c5040 	sll	t2,t4,0x1
8000114c:	01aa5025 	or	t2,t5,t2
80001150:	000567c2 	srl	t4,a1,0x1f
80001154:	00031840 	sll	v1,v1,0x1
80001158:	0107702b 	sltu	t6,t0,a3
8000115c:	006c1825 	or	v1,v1,t4
80001160:	01004825 	move	t1,t0
80001164:	00046fc2 	srl	t5,a0,0x1f
80001168:	00052840 	sll	a1,a1,0x1
8000116c:	256bffff 	addiu	t3,t3,-1
80001170:	00021040 	sll	v0,v0,0x1
80001174:	15c0000b 	bnez	t6,800011a4 <ull_div_and_mod.part.0+0x84>
80001178:	01406025 	move	t4,t2
8000117c:	00667023 	subu	t6,v1,a2
80001180:	006ec02b 	sltu	t8,v1,t6
80001184:	01074023 	subu	t0,t0,a3
80001188:	14e90003 	bne	a3,t1,80001198 <ull_div_and_mod.part.0+0x78>
8000118c:	0066c82b 	sltu	t9,v1,a2
80001190:	57200005 	bnezl	t9,800011a8 <ull_div_and_mod.part.0+0x88>
80001194:	00042040 	sll	a0,a0,0x1
80001198:	01c01825 	move	v1,t6
8000119c:	01184823 	subu	t1,t0,t8
800011a0:	34420001 	ori	v0,v0,0x1
800011a4:	00042040 	sll	a0,a0,0x1
800011a8:	1560ffe3 	bnez	t3,80001138 <ull_div_and_mod.part.0+0x18>
800011ac:	01a52825 	or	a1,t5,a1
800011b0:	ade30000 	sw	v1,0(t7)
800011b4:	ade90004 	sw	t1,4(t7)
800011b8:	03e00008 	jr	ra
800011bc:	01401825 	move	v1,t2

800011c0 <__udivdi3>:
800011c0:	00c71025 	or	v0,a2,a3
800011c4:	10400015 	beqz	v0,8000121c <__udivdi3+0x5c>
800011c8:	00c01025 	move	v0,a2
800011cc:	00a7102b 	sltu	v0,a1,a3
800011d0:	5440000f 	bnezl	v0,80001210 <__udivdi3+0x50>
800011d4:	00003825 	move	a3,zero
800011d8:	10e5000a 	beq	a3,a1,80001204 <__udivdi3+0x44>
800011dc:	0086102b 	sltu	v0,a0,a2
800011e0:	27bdffd8 	addiu	sp,sp,-40
800011e4:	27a20018 	addiu	v0,sp,24
800011e8:	afa20010 	sw	v0,16(sp)
800011ec:	afbf0024 	sw	ra,36(sp)
800011f0:	0c000448 	jal	80001120 <ull_div_and_mod.part.0>
800011f4:	00000000 	nop
800011f8:	8fbf0024 	lw	ra,36(sp)
800011fc:	03e00008 	jr	ra
80001200:	27bd0028 	addiu	sp,sp,40
80001204:	1040fff6 	beqz	v0,800011e0 <__udivdi3+0x20>
80001208:	00000000 	nop
8000120c:	00003825 	move	a3,zero
80001210:	00001025 	move	v0,zero
80001214:	03e00008 	jr	ra
80001218:	00e01825 	move	v1,a3
8000121c:	03e00008 	jr	ra
80001220:	00e01825 	move	v1,a3

80001224 <__umoddi3>:
80001224:	00c71025 	or	v0,a2,a3
80001228:	10400018 	beqz	v0,8000128c <__umoddi3+0x68>
8000122c:	00c01025 	move	v0,a2
80001230:	00a7102b 	sltu	v0,a1,a3
80001234:	54400012 	bnezl	v0,80001280 <__umoddi3+0x5c>
80001238:	00a03825 	move	a3,a1
8000123c:	10e5000d 	beq	a3,a1,80001274 <__umoddi3+0x50>
80001240:	0086102b 	sltu	v0,a0,a2
80001244:	27bdffd8 	addiu	sp,sp,-40
80001248:	27a20018 	addiu	v0,sp,24
8000124c:	afa20010 	sw	v0,16(sp)
80001250:	afbf0024 	sw	ra,36(sp)
80001254:	0c000448 	jal	80001120 <ull_div_and_mod.part.0>
80001258:	00000000 	nop
8000125c:	8fa7001c 	lw	a3,28(sp)
80001260:	8fbf0024 	lw	ra,36(sp)
80001264:	8fa20018 	lw	v0,24(sp)
80001268:	00e01825 	move	v1,a3
8000126c:	03e00008 	jr	ra
80001270:	27bd0028 	addiu	sp,sp,40
80001274:	1040fff3 	beqz	v0,80001244 <__umoddi3+0x20>
80001278:	00000000 	nop
8000127c:	00a03825 	move	a3,a1
80001280:	00801025 	move	v0,a0
80001284:	03e00008 	jr	ra
80001288:	00e01825 	move	v1,a3
8000128c:	03e00008 	jr	ra
80001290:	00e01825 	move	v1,a3

80001294 <__divdi3>:
80001294:	27bdffd0 	addiu	sp,sp,-48
80001298:	00c01025 	move	v0,a2
8000129c:	afb10028 	sw	s1,40(sp)
800012a0:	afb00024 	sw	s0,36(sp)
800012a4:	afbf002c 	sw	ra,44(sp)
800012a8:	00a08825 	move	s1,a1
800012ac:	04a10005 	bgez	a1,800012c4 <__divdi3+0x30>
800012b0:	00e08025 	move	s0,a3
800012b4:	0004282b 	sltu	a1,zero,a0
800012b8:	00111823 	negu	v1,s1
800012bc:	00042023 	negu	a0,a0
800012c0:	00652823 	subu	a1,v1,a1
800012c4:	06000009 	bltz	s0,800012ec <__divdi3+0x58>
800012c8:	00501825 	or	v1,v0,s0
800012cc:	00403025 	move	a2,v0
800012d0:	1460000a 	bnez	v1,800012fc <__divdi3+0x68>
800012d4:	02003825 	move	a3,s0
800012d8:	06210019 	bgez	s1,80001340 <__divdi3+0xac>
800012dc:	8fbf002c 	lw	ra,44(sp)
800012e0:	00001025 	move	v0,zero
800012e4:	10000011 	b	8000132c <__divdi3+0x98>
800012e8:	00003825 	move	a3,zero
800012ec:	0002182b 	sltu	v1,zero,v0
800012f0:	00103823 	negu	a3,s0
800012f4:	00023023 	negu	a2,v0
800012f8:	00e33823 	subu	a3,a3,v1
800012fc:	00a7102b 	sltu	v0,a1,a3
80001300:	14400017 	bnez	v0,80001360 <__divdi3+0xcc>
80001304:	00001025 	move	v0,zero
80001308:	10e50012 	beq	a3,a1,80001354 <__divdi3+0xc0>
8000130c:	0086102b 	sltu	v0,a0,a2
80001310:	27a20018 	addiu	v0,sp,24
80001314:	0c000448 	jal	80001120 <ull_div_and_mod.part.0>
80001318:	afa20010 	sw	v0,16(sp)
8000131c:	06200012 	bltz	s1,80001368 <__divdi3+0xd4>
80001320:	00603825 	move	a3,v1
80001324:	06010006 	bgez	s0,80001340 <__divdi3+0xac>
80001328:	8fbf002c 	lw	ra,44(sp)
8000132c:	0002182b 	sltu	v1,zero,v0
80001330:	00073823 	negu	a3,a3
80001334:	00021023 	negu	v0,v0
80001338:	00e33823 	subu	a3,a3,v1
8000133c:	8fbf002c 	lw	ra,44(sp)
80001340:	8fb10028 	lw	s1,40(sp)
80001344:	8fb00024 	lw	s0,36(sp)
80001348:	00e01825 	move	v1,a3
8000134c:	03e00008 	jr	ra
80001350:	27bd0030 	addiu	sp,sp,48
80001354:	1040ffef 	beqz	v0,80001314 <__divdi3+0x80>
80001358:	27a20018 	addiu	v0,sp,24
8000135c:	00001025 	move	v0,zero
80001360:	0621fff0 	bgez	s1,80001324 <__divdi3+0x90>
80001364:	00003825 	move	a3,zero
80001368:	0601fff0 	bgez	s0,8000132c <__divdi3+0x98>
8000136c:	8fbf002c 	lw	ra,44(sp)
80001370:	8fb10028 	lw	s1,40(sp)
80001374:	8fb00024 	lw	s0,36(sp)
80001378:	00e01825 	move	v1,a3
8000137c:	03e00008 	jr	ra
80001380:	27bd0030 	addiu	sp,sp,48

80001384 <__moddi3>:
80001384:	27bdffd8 	addiu	sp,sp,-40
80001388:	afb00020 	sw	s0,32(sp)
8000138c:	afbf0024 	sw	ra,36(sp)
80001390:	04a10005 	bgez	a1,800013a8 <__moddi3+0x24>
80001394:	00a08025 	move	s0,a1
80001398:	0004282b 	sltu	a1,zero,a0
8000139c:	00101023 	negu	v0,s0
800013a0:	00042023 	negu	a0,a0
800013a4:	00452823 	subu	a1,v0,a1
800013a8:	04e00010 	bltz	a3,800013ec <__moddi3+0x68>
800013ac:	00c71025 	or	v0,a2,a3
800013b0:	54400013 	bnezl	v0,80001400 <__moddi3+0x7c>
800013b4:	00a7102b 	sltu	v0,a1,a3
800013b8:	00002025 	move	a0,zero
800013bc:	00002825 	move	a1,zero
800013c0:	06010005 	bgez	s0,800013d8 <__moddi3+0x54>
800013c4:	00801025 	move	v0,a0
800013c8:	0004182b 	sltu	v1,zero,a0
800013cc:	00052823 	negu	a1,a1
800013d0:	00041023 	negu	v0,a0
800013d4:	00a32823 	subu	a1,a1,v1
800013d8:	8fbf0024 	lw	ra,36(sp)
800013dc:	8fb00020 	lw	s0,32(sp)
800013e0:	00a01825 	move	v1,a1
800013e4:	03e00008 	jr	ra
800013e8:	27bd0028 	addiu	sp,sp,40
800013ec:	0006102b 	sltu	v0,zero,a2
800013f0:	00073823 	negu	a3,a3
800013f4:	00063023 	negu	a2,a2
800013f8:	00e23823 	subu	a3,a3,v0
800013fc:	00a7102b 	sltu	v0,a1,a3
80001400:	1440ffef 	bnez	v0,800013c0 <__moddi3+0x3c>
80001404:	00000000 	nop
80001408:	50e50007 	beql	a3,a1,80001428 <__moddi3+0xa4>
8000140c:	0086102b 	sltu	v0,a0,a2
80001410:	27a20018 	addiu	v0,sp,24
80001414:	0c000448 	jal	80001120 <ull_div_and_mod.part.0>
80001418:	afa20010 	sw	v0,16(sp)
8000141c:	8fa40018 	lw	a0,24(sp)
80001420:	1000ffe7 	b	800013c0 <__moddi3+0x3c>
80001424:	8fa5001c 	lw	a1,28(sp)
80001428:	5040fffa 	beqzl	v0,80001414 <__moddi3+0x90>
8000142c:	27a20018 	addiu	v0,sp,24
80001430:	1000ffe3 	b	800013c0 <__moddi3+0x3c>
80001434:	00000000 	nop
	...

80001440 <count_biggest_free_block>:
80001440:	3c048000 	lui	a0,0x8000
80001444:	248420fc 	addiu	a0,a0,8444
80001448:	8c8c3e80 	lw	t4,16000(a0)
8000144c:	3c0d000f 	lui	t5,0xf
80001450:	3c0f8000 	lui	t7,0x8000
80001454:	25ad4240 	addiu	t5,t5,16960
80001458:	258cffff 	addiu	t4,t4,-1
8000145c:	11800020 	beqz	t4,800014e0 <count_biggest_free_block+0xa0>
80001460:	aded5f80 	sw	t5,24448(t7)
80001464:	8c860004 	lw	a2,4(a0)
80001468:	00007025 	move	t6,zero
8000146c:	00002825 	move	a1,zero
80001470:	00004825 	move	t1,zero
80001474:	00001025 	move	v0,zero
80001478:	00c01825 	move	v1,a2
8000147c:	8c86000c 	lw	a2,12(a0)
80001480:	8c880000 	lw	t0,0(a0)
80001484:	00a05025 	move	t2,a1
80001488:	00c31823 	subu	v1,a2,v1
8000148c:	00683823 	subu	a3,v1,t0
80001490:	0127582b 	sltu	t3,t1,a3
80001494:	10680006 	beq	v1,t0,800014b0 <count_biggest_free_block+0x70>
80001498:	24a50001 	addiu	a1,a1,1
8000149c:	11600004 	beqz	t3,800014b0 <count_biggest_free_block+0x70>
800014a0:	00471021 	addu	v0,v0,a3
800014a4:	01406825 	move	t5,t2
800014a8:	00e04825 	move	t1,a3
800014ac:	240e0001 	li	t6,1
800014b0:	14acfff1 	bne	a1,t4,80001478 <count_biggest_free_block+0x38>
800014b4:	24840008 	addiu	a0,a0,8
800014b8:	55c00001 	bnezl	t6,800014c0 <count_biggest_free_block+0x80>
800014bc:	aded5f80 	sw	t5,24448(t7)
800014c0:	3c038000 	lui	v1,0x8000
800014c4:	8c6320f8 	lw	v1,8440(v1)
800014c8:	00621023 	subu	v0,v1,v0
800014cc:	0049182b 	sltu	v1,v0,t1
800014d0:	54600001 	bnezl	v1,800014d8 <count_biggest_free_block+0x98>
800014d4:	01201025 	move	v0,t1
800014d8:	03e00008 	jr	ra
800014dc:	00000000 	nop
800014e0:	00004825 	move	t1,zero
800014e4:	1000fff6 	b	800014c0 <count_biggest_free_block+0x80>
800014e8:	00001025 	move	v0,zero

800014ec <heap_init>:
800014ec:	27bdffe8 	addiu	sp,sp,-24
800014f0:	afbf0014 	sw	ra,20(sp)
800014f4:	0c000174 	jal	800005d0 <debug_get_base_memory_size>
800014f8:	00000000 	nop
800014fc:	3c058000 	lui	a1,0x8000
80001500:	8fbf0014 	lw	ra,20(sp)
80001504:	3c048000 	lui	a0,0x8000
80001508:	aca220f8 	sw	v0,8440(a1)
8000150c:	3c028000 	lui	v0,0x8000
80001510:	248320fc 	addiu	v1,a0,8444
80001514:	24425f84 	addiu	v0,v0,24452
80001518:	ac620004 	sw	v0,4(v1)
8000151c:	24020001 	li	v0,1
80001520:	ac8020fc 	sw	zero,8444(a0)
80001524:	ac623e80 	sw	v0,16000(v1)
80001528:	03e00008 	jr	ra
8000152c:	27bd0018 	addiu	sp,sp,24

80001530 <push_first>:
80001530:	3c098000 	lui	t1,0x8000
80001534:	252720fc 	addiu	a3,t1,8444
80001538:	8ce83e80 	lw	t0,16000(a3)
8000153c:	2d020002 	sltiu	v0,t0,2
80001540:	5440000b 	bnezl	v0,80001570 <push_first+0x40>
80001544:	8ce20004 	lw	v0,4(a3)
80001548:	000810c0 	sll	v0,t0,0x3
8000154c:	00e21021 	addu	v0,a3,v0
80001550:	24e60008 	addiu	a2,a3,8
80001554:	8c45fff8 	lw	a1,-8(v0)
80001558:	8c43fffc 	lw	v1,-4(v0)
8000155c:	2442fff8 	addiu	v0,v0,-8
80001560:	ac450008 	sw	a1,8(v0)
80001564:	1446fffb 	bne	v0,a2,80001554 <push_first+0x24>
80001568:	ac43000c 	sw	v1,12(v0)
8000156c:	8ce20004 	lw	v0,4(a3)
80001570:	8d2320fc 	lw	v1,8444(t1)
80001574:	25080001 	addiu	t0,t0,1
80001578:	ace40008 	sw	a0,8(a3)
8000157c:	00431021 	addu	v0,v0,v1
80001580:	ace2000c 	sw	v0,12(a3)
80001584:	03e00008 	jr	ra
80001588:	ace83e80 	sw	t0,16000(a3)

8000158c <push_back>:
8000158c:	3c0c8000 	lui	t4,0x8000
80001590:	258c20fc 	addiu	t4,t4,8444
80001594:	8d8d3e80 	lw	t5,16000(t4)
80001598:	25aaffff 	addiu	t2,t5,-1
8000159c:	2d420002 	sltiu	v0,t2,2
800015a0:	14400030 	bnez	v0,80001664 <push_back+0xd8>
800015a4:	3c0e8000 	lui	t6,0x8000
800015a8:	8d86000c 	lw	a2,12(t4)
800015ac:	25ce2104 	addiu	t6,t6,8452
800015b0:	3c08000f 	lui	t0,0xf
800015b4:	01c02825 	move	a1,t6
800015b8:	01a04825 	move	t1,t5
800015bc:	24030001 	li	v1,1
800015c0:	25084240 	addiu	t0,t0,16960
800015c4:	00c01025 	move	v0,a2
800015c8:	8ca6000c 	lw	a2,12(a1)
800015cc:	8ca70000 	lw	a3,0(a1)
800015d0:	00821021 	addu	v0,a0,v0
800015d4:	00c21023 	subu	v0,a2,v0
800015d8:	00471023 	subu	v0,v0,a3
800015dc:	0048382b 	sltu	a3,v0,t0
800015e0:	00605825 	move	t3,v1
800015e4:	10e00003 	beqz	a3,800015f4 <push_back+0x68>
800015e8:	24630001 	addiu	v1,v1,1
800015ec:	00404025 	move	t0,v0
800015f0:	01604825 	move	t1,t3
800015f4:	146afff3 	bne	v1,t2,800015c4 <push_back+0x38>
800015f8:	24a50008 	addiu	a1,a1,8
800015fc:	25270001 	addiu	a3,t1,1
80001600:	112d001a 	beq	t1,t5,8000166c <push_back+0xe0>
80001604:	252affff 	addiu	t2,t1,-1
80001608:	00ed102b 	sltu	v0,a3,t5
8000160c:	1040000a 	beqz	v0,80001638 <push_back+0xac>
80001610:	000948c0 	sll	t1,t1,0x3
80001614:	000d10c0 	sll	v0,t5,0x3
80001618:	01821021 	addu	v0,t4,v0
8000161c:	01c97021 	addu	t6,t6,t1
80001620:	8c45fff8 	lw	a1,-8(v0)
80001624:	8c43fffc 	lw	v1,-4(v0)
80001628:	2442fff8 	addiu	v0,v0,-8
8000162c:	ac450008 	sw	a1,8(v0)
80001630:	15c2fffb 	bne	t6,v0,80001620 <push_back+0x94>
80001634:	ac43000c 	sw	v1,12(v0)
80001638:	01894821 	addu	t1,t4,t1
8000163c:	8d220004 	lw	v0,4(t1)
80001640:	8d230000 	lw	v1,0(t1)
80001644:	000738c0 	sll	a3,a3,0x3
80001648:	01873821 	addu	a3,t4,a3
8000164c:	00431021 	addu	v0,v0,v1
80001650:	25ad0001 	addiu	t5,t5,1
80001654:	ad8d3e80 	sw	t5,16000(t4)
80001658:	ace40000 	sw	a0,0(a3)
8000165c:	03e00008 	jr	ra
80001660:	ace20004 	sw	v0,4(a3)
80001664:	25a70001 	addiu	a3,t5,1
80001668:	01a04825 	move	t1,t5
8000166c:	000a50c0 	sll	t2,t2,0x3
80001670:	018a5021 	addu	t2,t4,t2
80001674:	8d420004 	lw	v0,4(t2)
80001678:	8d430000 	lw	v1,0(t2)
8000167c:	000948c0 	sll	t1,t1,0x3
80001680:	01894821 	addu	t1,t4,t1
80001684:	00431021 	addu	v0,v0,v1
80001688:	ad240000 	sw	a0,0(t1)
8000168c:	ad220004 	sw	v0,4(t1)
80001690:	03e00008 	jr	ra
80001694:	ad873e80 	sw	a3,16000(t4)

80001698 <kmalloc>:
80001698:	27bdffe8 	addiu	sp,sp,-24
8000169c:	afb00010 	sw	s0,16(sp)
800016a0:	3c108000 	lui	s0,0x8000
800016a4:	261920fc 	addiu	t9,s0,8444
800016a8:	8f233e80 	lw	v1,16000(t9)
800016ac:	240207d0 	li	v0,2000
800016b0:	1062002a 	beq	v1,v0,8000175c <kmalloc+0xc4>
800016b4:	afbf0014 	sw	ra,20(sp)
800016b8:	0004c023 	negu	t8,a0
800016bc:	33180003 	andi	t8,t8,0x3
800016c0:	0c000510 	jal	80001440 <count_biggest_free_block>
800016c4:	0098c021 	addu	t8,a0,t8
800016c8:	0058102b 	sltu	v0,v0,t8
800016cc:	14400023 	bnez	v0,8000175c <kmalloc+0xc4>
800016d0:	3c038000 	lui	v1,0x8000
800016d4:	8c6220f8 	lw	v0,8440(v1)
800016d8:	3c048000 	lui	a0,0x8000
800016dc:	8c845f80 	lw	a0,24448(a0)
800016e0:	00581023 	subu	v0,v0,t8
800016e4:	14800018 	bnez	a0,80001748 <kmalloc+0xb0>
800016e8:	ac6220f8 	sw	v0,8440(v1)
800016ec:	8f263e80 	lw	a2,16000(t9)
800016f0:	2cc20002 	sltiu	v0,a2,2
800016f4:	14400009 	bnez	v0,8000171c <kmalloc+0x84>
800016f8:	000610c0 	sll	v0,a2,0x3
800016fc:	03221021 	addu	v0,t9,v0
80001700:	27250008 	addiu	a1,t9,8
80001704:	8c44fff8 	lw	a0,-8(v0)
80001708:	8c43fffc 	lw	v1,-4(v0)
8000170c:	2442fff8 	addiu	v0,v0,-8
80001710:	ac440008 	sw	a0,8(v0)
80001714:	1445fffb 	bne	v0,a1,80001704 <kmalloc+0x6c>
80001718:	ac43000c 	sw	v1,12(v0)
8000171c:	8e0320fc 	lw	v1,8444(s0)
80001720:	8f220004 	lw	v0,4(t9)
80001724:	8fbf0014 	lw	ra,20(sp)
80001728:	24c60001 	addiu	a2,a2,1
8000172c:	00431021 	addu	v0,v0,v1
80001730:	8fb00010 	lw	s0,16(sp)
80001734:	af380008 	sw	t8,8(t9)
80001738:	af22000c 	sw	v0,12(t9)
8000173c:	af263e80 	sw	a2,16000(t9)
80001740:	03e00008 	jr	ra
80001744:	27bd0018 	addiu	sp,sp,24
80001748:	8fbf0014 	lw	ra,20(sp)
8000174c:	8fb00010 	lw	s0,16(sp)
80001750:	03002025 	move	a0,t8
80001754:	08000563 	j	8000158c <push_back>
80001758:	27bd0018 	addiu	sp,sp,24
8000175c:	8fbf0014 	lw	ra,20(sp)
80001760:	8fb00010 	lw	s0,16(sp)
80001764:	00001025 	move	v0,zero
80001768:	03e00008 	jr	ra
8000176c:	27bd0018 	addiu	sp,sp,24

80001770 <delete_chunk>:
80001770:	3c088000 	lui	t0,0x8000
80001774:	250820fc 	addiu	t0,t0,8444
80001778:	8d063e80 	lw	a2,16000(t0)
8000177c:	2cc20002 	sltiu	v0,a2,2
80001780:	1440001a 	bnez	v0,800017ec <delete_chunk+0x7c>
80001784:	24050001 	li	a1,1
80001788:	3c028000 	lui	v0,0x8000
8000178c:	10000004 	b	800017a0 <delete_chunk+0x30>
80001790:	24422108 	addiu	v0,v0,8456
80001794:	24a50001 	addiu	a1,a1,1
80001798:	10a60014 	beq	a1,a2,800017ec <delete_chunk+0x7c>
8000179c:	00000000 	nop
800017a0:	8c430000 	lw	v1,0(v0)
800017a4:	1464fffb 	bne	v1,a0,80001794 <delete_chunk+0x24>
800017a8:	24420008 	addiu	v0,v0,8
800017ac:	000518c0 	sll	v1,a1,0x3
800017b0:	01031821 	addu	v1,t0,v1
800017b4:	000638c0 	sll	a3,a2,0x3
800017b8:	00a6282b 	sltu	a1,a1,a2
800017bc:	8c620000 	lw	v0,0(v1)
800017c0:	10a00007 	beqz	a1,800017e0 <delete_chunk+0x70>
800017c4:	01073821 	addu	a3,t0,a3
800017c8:	8c650008 	lw	a1,8(v1)
800017cc:	8c64000c 	lw	a0,12(v1)
800017d0:	24630008 	addiu	v1,v1,8
800017d4:	ac65fff8 	sw	a1,-8(v1)
800017d8:	14e3fffb 	bne	a3,v1,800017c8 <delete_chunk+0x58>
800017dc:	ac64fffc 	sw	a0,-4(v1)
800017e0:	24c6ffff 	addiu	a2,a2,-1
800017e4:	03e00008 	jr	ra
800017e8:	ad063e80 	sw	a2,16000(t0)
800017ec:	03e00008 	jr	ra
800017f0:	00001025 	move	v0,zero

800017f4 <kfree>:
800017f4:	27bdffe8 	addiu	sp,sp,-24
800017f8:	afbf0014 	sw	ra,20(sp)
800017fc:	0c0005dc 	jal	80001770 <delete_chunk>
80001800:	00000000 	nop
80001804:	3c048000 	lui	a0,0x8000
80001808:	8c8320f8 	lw	v1,8440(a0)
8000180c:	8fbf0014 	lw	ra,20(sp)
80001810:	27bd0018 	addiu	sp,sp,24
80001814:	00621821 	addu	v1,v1,v0
80001818:	03e00008 	jr	ra
8000181c:	ac8320f8 	sw	v1,8440(a0)

80001820 <print_array>:
80001820:	27bdffd8 	addiu	sp,sp,-40
80001824:	3c028000 	lui	v0,0x8000
80001828:	afb2001c 	sw	s2,28(sp)
8000182c:	245220fc 	addiu	s2,v0,8444
80001830:	8c4620fc 	lw	a2,8444(v0)
80001834:	8e450004 	lw	a1,4(s2)
80001838:	3c048000 	lui	a0,0x8000
8000183c:	24842098 	addiu	a0,a0,8344
80001840:	afbf0024 	sw	ra,36(sp)
80001844:	afb30020 	sw	s3,32(sp)
80001848:	afb10018 	sw	s1,24(sp)
8000184c:	0c0001be 	jal	800006f8 <printk>
80001850:	afb00014 	sw	s0,20(sp)
80001854:	8e423e80 	lw	v0,16000(s2)
80001858:	2c420002 	sltiu	v0,v0,2
8000185c:	1440000f 	bnez	v0,8000189c <print_array+0x7c>
80001860:	3c108000 	lui	s0,0x8000
80001864:	3c138000 	lui	s3,0x8000
80001868:	26102104 	addiu	s0,s0,8452
8000186c:	24110001 	li	s1,1
80001870:	267320b8 	addiu	s3,s3,8376
80001874:	8e070000 	lw	a3,0(s0)
80001878:	8e060004 	lw	a2,4(s0)
8000187c:	02202825 	move	a1,s1
80001880:	0c0001be 	jal	800006f8 <printk>
80001884:	02602025 	move	a0,s3
80001888:	8e423e80 	lw	v0,16000(s2)
8000188c:	26310001 	addiu	s1,s1,1
80001890:	0222102b 	sltu	v0,s1,v0
80001894:	1440fff7 	bnez	v0,80001874 <print_array+0x54>
80001898:	26100008 	addiu	s0,s0,8
8000189c:	8fbf0024 	lw	ra,36(sp)
800018a0:	8fb30020 	lw	s3,32(sp)
800018a4:	8fb2001c 	lw	s2,28(sp)
800018a8:	8fb10018 	lw	s1,24(sp)
800018ac:	8fb00014 	lw	s0,20(sp)
800018b0:	03e00008 	jr	ra
800018b4:	27bd0028 	addiu	sp,sp,40
	...

800018c0 <cpu_switch_context>:
800018c0:	27bdff64 	addiu	sp,sp,-156
800018c4:	ac9d0000 	sw	sp,0(a0)
800018c8:	afa00000 	sw	zero,0(sp)
800018cc:	afa10004 	sw	at,4(sp)
800018d0:	afa20008 	sw	v0,8(sp)
800018d4:	afa3000c 	sw	v1,12(sp)
800018d8:	afa40010 	sw	a0,16(sp)
800018dc:	afa50014 	sw	a1,20(sp)
800018e0:	afa60018 	sw	a2,24(sp)
800018e4:	afa7001c 	sw	a3,28(sp)
800018e8:	afa80020 	sw	t0,32(sp)
800018ec:	afa90024 	sw	t1,36(sp)
800018f0:	afaa0028 	sw	t2,40(sp)
800018f4:	afab002c 	sw	t3,44(sp)
800018f8:	afac0030 	sw	t4,48(sp)
800018fc:	afad0034 	sw	t5,52(sp)
80001900:	afae0038 	sw	t6,56(sp)
80001904:	afaf003c 	sw	t7,60(sp)
80001908:	afb80040 	sw	t8,64(sp)
8000190c:	afb90044 	sw	t9,68(sp)
80001910:	afb00048 	sw	s0,72(sp)
80001914:	afb1004c 	sw	s1,76(sp)
80001918:	afb20050 	sw	s2,80(sp)
8000191c:	afb30054 	sw	s3,84(sp)
80001920:	afb40058 	sw	s4,88(sp)
80001924:	afb5005c 	sw	s5,92(sp)
80001928:	afb60060 	sw	s6,96(sp)
8000192c:	afb70064 	sw	s7,100(sp)
80001930:	afbc0070 	sw	gp,112(sp)
80001934:	afbe0074 	sw	s8,116(sp)
80001938:	afbf007c 	sw	ra,124(sp)
8000193c:	40086000 	mfc0	t0,c0_sr
80001940:	afa80098 	sw	t0,152(sp)
80001944:	2409fffe 	li	t1,-2
80001948:	01094024 	and	t0,t0,t1
8000194c:	40886000 	mtc0	t0,c0_sr
80001950:	40085000 	mfc0	t0,c0_entryhi
80001954:	2409ff00 	li	t1,-256
80001958:	01094024 	and	t0,t0,t1
8000195c:	01064025 	or	t0,t0,a2
80001960:	40885000 	mtc0	t0,c0_entryhi
80001964:	8cbd0000 	lw	sp,0(a1)
80001968:	8fbf007c 	lw	ra,124(sp)
8000196c:	8fbe0074 	lw	s8,116(sp)
80001970:	8fbc0070 	lw	gp,112(sp)
80001974:	8fb70064 	lw	s7,100(sp)
80001978:	8fb60060 	lw	s6,96(sp)
8000197c:	8fb5005c 	lw	s5,92(sp)
80001980:	8fb40058 	lw	s4,88(sp)
80001984:	8fb30054 	lw	s3,84(sp)
80001988:	8fb20050 	lw	s2,80(sp)
8000198c:	8fb1004c 	lw	s1,76(sp)
80001990:	8fb00048 	lw	s0,72(sp)
80001994:	8fb90044 	lw	t9,68(sp)
80001998:	8fb80040 	lw	t8,64(sp)
8000199c:	8faf003c 	lw	t7,60(sp)
800019a0:	8fae0038 	lw	t6,56(sp)
800019a4:	8fad0034 	lw	t5,52(sp)
800019a8:	8fac0030 	lw	t4,48(sp)
800019ac:	8fab002c 	lw	t3,44(sp)
800019b0:	8faa0028 	lw	t2,40(sp)
800019b4:	8fa90024 	lw	t1,36(sp)
800019b8:	8fa80020 	lw	t0,32(sp)
800019bc:	8fa7001c 	lw	a3,28(sp)
800019c0:	8fa60018 	lw	a2,24(sp)
800019c4:	8fa50014 	lw	a1,20(sp)
800019c8:	8fa40010 	lw	a0,16(sp)
800019cc:	8fa3000c 	lw	v1,12(sp)
800019d0:	8fa20008 	lw	v0,8(sp)
800019d4:	8fa10004 	lw	at,4(sp)
800019d8:	8fa00000 	lw	zero,0(sp)
800019dc:	8fba0098 	lw	k0,152(sp)
800019e0:	27bd009c 	addiu	sp,sp,156
800019e4:	03e00008 	jr	ra
800019e8:	409a6000 	mtc0	k0,c0_sr
800019ec:	00000000 	nop

800019f0 <scheduler_init>:
800019f0:	27bdffe8 	addiu	sp,sp,-24
800019f4:	afbf0014 	sw	ra,20(sp)
800019f8:	0c0003d4 	jal	80000f50 <create_queue>
800019fc:	00000000 	nop
80001a00:	8fbf0014 	lw	ra,20(sp)
80001a04:	3c038000 	lui	v1,0x8000
80001a08:	ac6220f0 	sw	v0,8432(v1)
80001a0c:	03e00008 	jr	ra
80001a10:	27bd0018 	addiu	sp,sp,24

80001a14 <scheduler_add_ready_thread>:
80001a14:	3c028000 	lui	v0,0x8000
80001a18:	00802825 	move	a1,a0
80001a1c:	080003dd 	j	80000f74 <enqueue>
80001a20:	8c4420f0 	lw	a0,8432(v0)

80001a24 <scheduler_remove_thread>:
80001a24:	3c028000 	lui	v0,0x8000
80001a28:	00802825 	move	a1,a0
80001a2c:	080003f8 	j	80000fe0 <dequeue>
80001a30:	8c4420f0 	lw	a0,8432(v0)

80001a34 <scheduler_schedule_next>:
80001a34:	27bdffe8 	addiu	sp,sp,-24
80001a38:	afb00010 	sw	s0,16(sp)
80001a3c:	3c108000 	lui	s0,0x8000
80001a40:	8e0420f0 	lw	a0,8432(s0)
80001a44:	afbf0014 	sw	ra,20(sp)
80001a48:	0c000426 	jal	80001098 <get_next_ready>
80001a4c:	00002825 	move	a1,zero
80001a50:	10400005 	beqz	v0,80001a68 <scheduler_schedule_next+0x34>
80001a54:	00402025 	move	a0,v0
80001a58:	8fbf0014 	lw	ra,20(sp)
80001a5c:	8fb00010 	lw	s0,16(sp)
80001a60:	08000728 	j	80001ca0 <thread_switch_to>
80001a64:	27bd0018 	addiu	sp,sp,24
80001a68:	8e0420f0 	lw	a0,8432(s0)
80001a6c:	0c000426 	jal	80001098 <get_next_ready>
80001a70:	24050002 	li	a1,2
80001a74:	8fbf0014 	lw	ra,20(sp)
80001a78:	8fb00010 	lw	s0,16(sp)
80001a7c:	00402025 	move	a0,v0
80001a80:	08000728 	j	80001ca0 <thread_switch_to>
80001a84:	27bd0018 	addiu	sp,sp,24
	...

80001a90 <threads_init>:
80001a90:	03e00008 	jr	ra
80001a94:	00000000 	nop

80001a98 <thread_create>:
80001a98:	27bdffd8 	addiu	sp,sp,-40
80001a9c:	afb20018 	sw	s2,24(sp)
80001aa0:	00809025 	move	s2,a0
80001aa4:	24040040 	li	a0,64
80001aa8:	afb40020 	sw	s4,32(sp)
80001aac:	afb3001c 	sw	s3,28(sp)
80001ab0:	afb00010 	sw	s0,16(sp)
80001ab4:	afbf0024 	sw	ra,36(sp)
80001ab8:	afb10014 	sw	s1,20(sp)
80001abc:	8fb00038 	lw	s0,56(sp)
80001ac0:	00a09825 	move	s3,a1
80001ac4:	0c0005a6 	jal	80001698 <kmalloc>
80001ac8:	00c0a025 	move	s4,a2
80001acc:	10400029 	beqz	v0,80001b74 <thread_create+0xdc>
80001ad0:	00408825 	move	s1,v0
80001ad4:	02201825 	move	v1,s1
80001ad8:	10000005 	b	80001af0 <thread_create+0x58>
80001adc:	2602001f 	addiu	v0,s0,31
80001ae0:	26100001 	addiu	s0,s0,1
80001ae4:	24630001 	addiu	v1,v1,1
80001ae8:	12020003 	beq	s0,v0,80001af8 <thread_create+0x60>
80001aec:	a067ffff 	sb	a3,-1(v1)
80001af0:	5600fffb 	bnezl	s0,80001ae0 <thread_create+0x48>
80001af4:	82070000 	lb	a3,0(s0)
80001af8:	ae330020 	sw	s3,32(s1)
80001afc:	ae34002c 	sw	s4,44(s1)
80001b00:	24041000 	li	a0,4096
80001b04:	ae200024 	sw	zero,36(s1)
80001b08:	ae200038 	sw	zero,56(s1)
80001b0c:	0c0005a6 	jal	80001698 <kmalloc>
80001b10:	ae20003c 	sw	zero,60(s1)
80001b14:	24430f64 	addiu	v1,v0,3940
80001b18:	ae220030 	sw	v0,48(s1)
80001b1c:	24451000 	addiu	a1,v0,4096
80001b20:	3402ff01 	li	v0,0xff01
80001b24:	ae230034 	sw	v1,52(s1)
80001b28:	ac620098 	sw	v0,152(v1)
80001b2c:	3c028000 	lui	v0,0x8000
80001b30:	24421db4 	addiu	v0,v0,7604
80001b34:	ac62007c 	sw	v0,124(v1)
80001b38:	ac650078 	sw	a1,120(v1)
80001b3c:	02202025 	move	a0,s1
80001b40:	ae230028 	sw	v1,40(s1)
80001b44:	ac710010 	sw	s1,16(v1)
80001b48:	0c000685 	jal	80001a14 <scheduler_add_ready_thread>
80001b4c:	ae510000 	sw	s1,0(s2)
80001b50:	8fbf0024 	lw	ra,36(sp)
80001b54:	8fb40020 	lw	s4,32(sp)
80001b58:	8fb3001c 	lw	s3,28(sp)
80001b5c:	8fb20018 	lw	s2,24(sp)
80001b60:	8fb10014 	lw	s1,20(sp)
80001b64:	8fb00010 	lw	s0,16(sp)
80001b68:	00001025 	move	v0,zero
80001b6c:	03e00008 	jr	ra
80001b70:	27bd0028 	addiu	sp,sp,40
80001b74:	8fbf0024 	lw	ra,36(sp)
80001b78:	8fb40020 	lw	s4,32(sp)
80001b7c:	8fb3001c 	lw	s3,28(sp)
80001b80:	8fb20018 	lw	s2,24(sp)
80001b84:	8fb10014 	lw	s1,20(sp)
80001b88:	8fb00010 	lw	s0,16(sp)
80001b8c:	24020002 	li	v0,2
80001b90:	03e00008 	jr	ra
80001b94:	27bd0028 	addiu	sp,sp,40

80001b98 <thread_get_current>:
80001b98:	3c028000 	lui	v0,0x8000
80001b9c:	03e00008 	jr	ra
80001ba0:	8c4220f4 	lw	v0,8436(v0)

80001ba4 <thread_yield>:
80001ba4:	27bdffe8 	addiu	sp,sp,-24
80001ba8:	3c028000 	lui	v0,0x8000
80001bac:	afb00010 	sw	s0,16(sp)
80001bb0:	8c5020f4 	lw	s0,8436(v0)
80001bb4:	afbf0014 	sw	ra,20(sp)
80001bb8:	02002025 	move	a0,s0
80001bbc:	0c000689 	jal	80001a24 <scheduler_remove_thread>
80001bc0:	ae000024 	sw	zero,36(s0)
80001bc4:	14400004 	bnez	v0,80001bd8 <thread_yield+0x34>
80001bc8:	8fbf0014 	lw	ra,20(sp)
80001bcc:	8fb00010 	lw	s0,16(sp)
80001bd0:	0800068d 	j	80001a34 <scheduler_schedule_next>
80001bd4:	27bd0018 	addiu	sp,sp,24
80001bd8:	0c000685 	jal	80001a14 <scheduler_add_ready_thread>
80001bdc:	02002025 	move	a0,s0
80001be0:	8fbf0014 	lw	ra,20(sp)
80001be4:	8fb00010 	lw	s0,16(sp)
80001be8:	0800068d 	j	80001a34 <scheduler_schedule_next>
80001bec:	27bd0018 	addiu	sp,sp,24

80001bf0 <thread_suspend>:
80001bf0:	27bdffe8 	addiu	sp,sp,-24
80001bf4:	3c028000 	lui	v0,0x8000
80001bf8:	afb00010 	sw	s0,16(sp)
80001bfc:	8c5020f4 	lw	s0,8436(v0)
80001c00:	24020003 	li	v0,3
80001c04:	afbf0014 	sw	ra,20(sp)
80001c08:	02002025 	move	a0,s0
80001c0c:	0c000689 	jal	80001a24 <scheduler_remove_thread>
80001c10:	ae020024 	sw	v0,36(s0)
80001c14:	14400004 	bnez	v0,80001c28 <thread_suspend+0x38>
80001c18:	8fbf0014 	lw	ra,20(sp)
80001c1c:	8fb00010 	lw	s0,16(sp)
80001c20:	0800068d 	j	80001a34 <scheduler_schedule_next>
80001c24:	27bd0018 	addiu	sp,sp,24
80001c28:	0c000685 	jal	80001a14 <scheduler_add_ready_thread>
80001c2c:	02002025 	move	a0,s0
80001c30:	8fbf0014 	lw	ra,20(sp)
80001c34:	8fb00010 	lw	s0,16(sp)
80001c38:	0800068d 	j	80001a34 <scheduler_schedule_next>
80001c3c:	27bd0018 	addiu	sp,sp,24

80001c40 <thread_has_finished>:
80001c40:	10800005 	beqz	a0,80001c58 <thread_has_finished+0x18>
80001c44:	00000000 	nop
80001c48:	8c820024 	lw	v0,36(a0)
80001c4c:	38420004 	xori	v0,v0,0x4
80001c50:	03e00008 	jr	ra
80001c54:	2c420001 	sltiu	v0,v0,1
80001c58:	03e00008 	jr	ra
80001c5c:	24020001 	li	v0,1

80001c60 <thread_wakeup>:
80001c60:	1080000d 	beqz	a0,80001c98 <thread_wakeup+0x38>
80001c64:	24030002 	li	v1,2
80001c68:	8c820024 	lw	v0,36(a0)
80001c6c:	1043000a 	beq	v0,v1,80001c98 <thread_wakeup+0x38>
80001c70:	24030004 	li	v1,4
80001c74:	10430006 	beq	v0,v1,80001c90 <thread_wakeup+0x30>
80001c78:	00000000 	nop
80001c7c:	2c420002 	sltiu	v0,v0,2
80001c80:	54400003 	bnezl	v0,80001c90 <thread_wakeup+0x30>
80001c84:	00001025 	move	v0,zero
80001c88:	03e00008 	jr	ra
80001c8c:	ac800024 	sw	zero,36(a0)
80001c90:	03e00008 	jr	ra
80001c94:	00000000 	nop
80001c98:	03e00008 	jr	ra
80001c9c:	24020005 	li	v0,5

80001ca0 <thread_switch_to>:
80001ca0:	27bdffe0 	addiu	sp,sp,-32
80001ca4:	3c028000 	lui	v0,0x8000
80001ca8:	afb10018 	sw	s1,24(sp)
80001cac:	8c5120f4 	lw	s1,8436(v0)
80001cb0:	afb00014 	sw	s0,20(sp)
80001cb4:	afbf001c 	sw	ra,28(sp)
80001cb8:	00808025 	move	s0,a0
80001cbc:	1220000e 	beqz	s1,80001cf8 <thread_switch_to+0x58>
80001cc0:	ac4420f4 	sw	a0,8436(v0)
80001cc4:	24020001 	li	v0,1
80001cc8:	ac820024 	sw	v0,36(a0)
80001ccc:	0c000689 	jal	80001a24 <scheduler_remove_thread>
80001cd0:	02202025 	move	a0,s1
80001cd4:	14400013 	bnez	v0,80001d24 <thread_switch_to+0x84>
80001cd8:	8fbf001c 	lw	ra,28(sp)
80001cdc:	26050034 	addiu	a1,s0,52
80001ce0:	26240034 	addiu	a0,s1,52
80001ce4:	8fb00014 	lw	s0,20(sp)
80001ce8:	8fb10018 	lw	s1,24(sp)
80001cec:	24060001 	li	a2,1
80001cf0:	08000630 	j	800018c0 <cpu_switch_context>
80001cf4:	27bd0020 	addiu	sp,sp,32
80001cf8:	1080000e 	beqz	a0,80001d34 <thread_switch_to+0x94>
80001cfc:	8fbf001c 	lw	ra,28(sp)
80001d00:	8fb10018 	lw	s1,24(sp)
80001d04:	8fb00014 	lw	s0,20(sp)
80001d08:	24020001 	li	v0,1
80001d0c:	ac820024 	sw	v0,36(a0)
80001d10:	24850034 	addiu	a1,a0,52
80001d14:	24060001 	li	a2,1
80001d18:	00002025 	move	a0,zero
80001d1c:	08000630 	j	800018c0 <cpu_switch_context>
80001d20:	27bd0020 	addiu	sp,sp,32
80001d24:	0c000685 	jal	80001a14 <scheduler_add_ready_thread>
80001d28:	02202025 	move	a0,s1
80001d2c:	1000ffeb 	b	80001cdc <thread_switch_to+0x3c>
80001d30:	8fbf001c 	lw	ra,28(sp)
80001d34:	8fb10018 	lw	s1,24(sp)
80001d38:	8fb00014 	lw	s0,20(sp)
80001d3c:	03e00008 	jr	ra
80001d40:	27bd0020 	addiu	sp,sp,32

80001d44 <kill_thread>:
80001d44:	27bdffe0 	addiu	sp,sp,-32
80001d48:	3c028000 	lui	v0,0x8000
80001d4c:	afb00014 	sw	s0,20(sp)
80001d50:	8c5020f4 	lw	s0,8436(v0)
80001d54:	3c028000 	lui	v0,0x8000
80001d58:	8c4420f0 	lw	a0,8432(v0)
80001d5c:	02002825 	move	a1,s0
80001d60:	afbf001c 	sw	ra,28(sp)
80001d64:	afb10018 	sw	s1,24(sp)
80001d68:	0c000438 	jal	800010e0 <remove_all_dependencies>
80001d6c:	8e11003c 	lw	s1,60(s0)
80001d70:	0c000689 	jal	80001a24 <scheduler_remove_thread>
80001d74:	02002025 	move	a0,s0
80001d78:	24020004 	li	v0,4
80001d7c:	ae020024 	sw	v0,36(s0)
80001d80:	0c0005fd 	jal	800017f4 <kfree>
80001d84:	02002025 	move	a0,s0
80001d88:	12200006 	beqz	s1,80001da4 <kill_thread+0x60>
80001d8c:	8fbf001c 	lw	ra,28(sp)
80001d90:	8fb00014 	lw	s0,20(sp)
80001d94:	02202025 	move	a0,s1
80001d98:	8fb10018 	lw	s1,24(sp)
80001d9c:	08000728 	j	80001ca0 <thread_switch_to>
80001da0:	27bd0020 	addiu	sp,sp,32
80001da4:	8fb10018 	lw	s1,24(sp)
80001da8:	8fb00014 	lw	s0,20(sp)
80001dac:	0800068d 	j	80001a34 <scheduler_schedule_next>
80001db0:	27bd0020 	addiu	sp,sp,32

80001db4 <wrap>:
80001db4:	8c820020 	lw	v0,32(a0)
80001db8:	8c84002c 	lw	a0,44(a0)
80001dbc:	27bdffe8 	addiu	sp,sp,-24
80001dc0:	afbf0014 	sw	ra,20(sp)
80001dc4:	0040f809 	jalr	v0
80001dc8:	00000000 	nop
80001dcc:	8fbf0014 	lw	ra,20(sp)
80001dd0:	3c038000 	lui	v1,0x8000
80001dd4:	27bd0018 	addiu	sp,sp,24
80001dd8:	08000751 	j	80001d44 <kill_thread>
80001ddc:	ac6220e0 	sw	v0,8416(v1)

80001de0 <thread_finish>:
80001de0:	27bdffe8 	addiu	sp,sp,-24
80001de4:	3c028000 	lui	v0,0x8000
80001de8:	ac4420e0 	sw	a0,8416(v0)
80001dec:	afbf0014 	sw	ra,20(sp)
80001df0:	0c000751 	jal	80001d44 <kill_thread>
80001df4:	00000000 	nop
80001df8:	0c000751 	jal	80001d44 <kill_thread>
80001dfc:	00000000 	nop
80001e00:	1000fffb 	b	80001df0 <thread_finish+0x10>
80001e04:	00000000 	nop

80001e08 <thread_join>:
80001e08:	10800023 	beqz	a0,80001e98 <thread_join+0x90>
80001e0c:	00000000 	nop
80001e10:	8c86003c 	lw	a2,60(a0)
80001e14:	14c00019 	bnez	a2,80001e7c <thread_join+0x74>
80001e18:	24020003 	li	v0,3
80001e1c:	8c860024 	lw	a2,36(a0)
80001e20:	24020004 	li	v0,4
80001e24:	10c20014 	beq	a2,v0,80001e78 <thread_join+0x70>
80001e28:	24030002 	li	v1,2
80001e2c:	3c028000 	lui	v0,0x8000
80001e30:	8c4220f4 	lw	v0,8436(v0)
80001e34:	27bdffe8 	addiu	sp,sp,-24
80001e38:	ac82003c 	sw	v0,60(a0)
80001e3c:	afb00010 	sw	s0,16(sp)
80001e40:	afbf0014 	sw	ra,20(sp)
80001e44:	00a08025 	move	s0,a1
80001e48:	ac440038 	sw	a0,56(v0)
80001e4c:	0c000728 	jal	80001ca0 <thread_switch_to>
80001e50:	ac430024 	sw	v1,36(v0)
80001e54:	1200000b 	beqz	s0,80001e84 <thread_join+0x7c>
80001e58:	3c028000 	lui	v0,0x8000
80001e5c:	8c4320e0 	lw	v1,8416(v0)
80001e60:	8fbf0014 	lw	ra,20(sp)
80001e64:	00001025 	move	v0,zero
80001e68:	ae030000 	sw	v1,0(s0)
80001e6c:	8fb00010 	lw	s0,16(sp)
80001e70:	03e00008 	jr	ra
80001e74:	27bd0018 	addiu	sp,sp,24
80001e78:	00001025 	move	v0,zero
80001e7c:	03e00008 	jr	ra
80001e80:	00000000 	nop
80001e84:	8fbf0014 	lw	ra,20(sp)
80001e88:	8fb00010 	lw	s0,16(sp)
80001e8c:	00001025 	move	v0,zero
80001e90:	03e00008 	jr	ra
80001e94:	27bd0018 	addiu	sp,sp,24
80001e98:	03e00008 	jr	ra
80001e9c:	24020005 	li	v0,5
80001ea0:	203a7325 	addi	k0,at,29477
80001ea4:	6c6c6548 	ldr	t4,25928(v1)
80001ea8:	57202c6f 	bnezl	t9,8000d068 <_kernel_end+0x70e4>
80001eac:	646c726f 	daddiu	t4,v1,29295
80001eb0:	00000a21 	0xa21
80001eb4:	6c61480a 	ldr	at,18442(v1)
80001eb8:	000a2e74 	teq	zero,t2,0xb9
80001ebc:	6e6b6e75 	ldr	t3,28277(s3)
80001ec0:	206e776f 	addi	t6,v1,30575
80001ec4:	6f727265 	ldr	s2,29285(k1)
80001ec8:	00000072 	tlt	zero,zero,0x1
80001ecc:	494e495b 	0x494e495b
80001ed0:	00005d54 	0x5d54
80001ed4:	6e72654b 	ldr	s2,25931(s3)
80001ed8:	70206c65 	0x70206c65
80001edc:	63696e61 	daddi	t1,k1,28257
80001ee0:	6e69203a 	ldr	t1,8250(s3)
80001ee4:	74207469 	jalx	8081d1a4 <_kernel_end+0x817220>
80001ee8:	61657268 	daddi	a1,t3,29288
80001eec:	72632064 	0x72632064
80001ef0:	69746165 	ldl	s4,24933(t3)
80001ef4:	66206e6f 	daddiu	zero,s1,28271
80001ef8:	656c6961 	daddiu	t4,t3,26977
80001efc:	25282064 	addiu	t0,t1,8292
80001f00:	25203a64 	addiu	zero,t1,14948
80001f04:	000a2973 	tltu	zero,t2,0xa5
80001f08:	61636f4c 	daddi	v1,t3,28492
80001f0c:	6e6f6974 	ldr	t7,26996(s3)
80001f10:	7273203a 	0x7273203a
80001f14:	616d2f63 	daddi	t5,t3,12131
80001f18:	632e6e69 	daddi	t6,t9,28265
80001f1c:	0039333a 	0x39333a
80001f20:	646e6f43 	daddiu	t6,v1,28483
80001f24:	6f697469 	ldr	t1,29801(k1)
80001f28:	65203a6e 	daddiu	zero,t1,14958
80001f2c:	21207272 	addi	zero,t1,29298
80001f30:	4f45203d 	c3	0x145203d
80001f34:	0000004b 	0x4b
80001f38:	6e72654b 	ldr	s2,25931(s3)
80001f3c:	70206c65 	0x70206c65
80001f40:	63696e61 	daddi	t1,k1,28257
80001f44:	6e75203a 	ldr	s5,8250(s3)
80001f48:	65707865 	daddiu	s0,t3,30821
80001f4c:	64657463 	daddiu	a1,v1,29795
80001f50:	74657220 	jalx	8195c880 <_kernel_end+0x19568fc>
80001f54:	206e7275 	addi	t6,v1,29301
80001f58:	6b206f74 	ldl	zero,28532(t9)
80001f5c:	656e7265 	daddiu	t6,t3,29285
80001f60:	616d5f6c 	daddi	t5,t3,24428
80001f64:	000a6e69 	0xa6e69
80001f68:	61636f4c 	daddi	v1,t3,28492
80001f6c:	6e6f6974 	ldr	t7,26996(s3)
80001f70:	7273203a 	0x7273203a
80001f74:	616d2f63 	daddi	t5,t3,12131
80001f78:	632e6e69 	daddi	t6,t9,28265
80001f7c:	0034343a 	0x34343a
80001f80:	65206f6e 	daddiu	zero,t1,28526
80001f84:	726f7272 	0x726f7272
80001f88:	00000000 	nop
80001f8c:	20746f6e 	addi	s4,v1,28526
80001f90:	6c706d69 	ldr	s0,28009(v1)
80001f94:	6e656d65 	ldr	a1,28005(s3)
80001f98:	00646574 	teq	v1,a0,0x195
80001f9c:	2074756f 	addi	s4,v1,30063
80001fa0:	6d20666f 	ldr	zero,26223(t1)
80001fa4:	726f6d65 	0x726f6d65
80001fa8:	00000079 	0x79
80001fac:	6f736572 	ldr	s3,25970(k1)
80001fb0:	65637275 	daddiu	v1,t3,29301
80001fb4:	20736920 	addi	s3,v1,26912
80001fb8:	79737562 	0x79737562
80001fbc:	00000000 	nop
80001fc0:	65726874 	daddiu	s2,t3,26740
80001fc4:	61206461 	daddi	zero,t1,25697
80001fc8:	6165726c 	daddi	a1,t3,29292
80001fcc:	65207964 	daddiu	zero,t1,31076
80001fd0:	65746978 	daddiu	s4,t3,27000
80001fd4:	00000064 	0x64
80001fd8:	61766e69 	daddi	s6,t3,28265
80001fdc:	2064696c 	addi	a0,v1,26988
80001fe0:	65726874 	daddiu	s2,t3,26740
80001fe4:	00006461 	0x6461
	...

80001ff0 <CSWTCH.2>:
80001ff0:	80001f80 80001f8c 80001f9c 80001fac     ................
80002000:	80001fc0 80001fd8 00000000 00000000     ................
80002010:	3c207825 3a3e7325 0000000a 203a7825     %x <%s>:....%x: 
80002020:	20202020 25202020 00000a61 706d655b            %a...[emp
80002030:	005d7974 65726854 69206461 3a6f666e     ty].Thread info:
80002040:	00000000 656d614e 0000203a 72646441     ....Name: ..Addr
80002050:	3a737365 00000020 74617453 203a7375     ess: ...Status: 
80002060:	000a6425 33323130 37363534 62613938     %d..0123456789ab
80002070:	66656463 00000000 33323130 37363534     cdef....01234567
80002080:	00003938 33323130 37363534 42413938     89..0123456789AB
80002090:	46454443 00000000 64616548 69207265     CDEF....Header i
800020a0:	64612073 73657264 25203a73 6d202c75     s address: %u, m
800020b0:	203a6d65 000a7525 25203a69 61202c75     em: %u..i: %u, a
800020c0:	65726464 203a7373 202c7525 3a6d656d     ddress: %u, mem:
800020d0:	0a752520 00000000 00000000 00000000      %u.............

800020e0 <retvalue>:
	...

800020f0 <queue>:
800020f0:	00000000                                ....

800020f4 <current_thread>:
800020f4:	00000000                                ....

800020f8 <mem_left>:
800020f8:	00000000                                ....

800020fc <heap>:
	...

80005f80 <biggest_gap_index>:
80005f80:	00000000                                ....
