
Allocating common symbols
Common symbol       size              file

queue               0x4               src/main.o
current_thread      0x4               src/main.o
mem_left            0x4               src/main.o
heap                0x3e84            src/main.o
biggest_gap_index   0x4               src/main.o

Discarded input sections

 .group         0x0000000000000000        0xc src/main.o
 .group         0x0000000000000000        0xc src/main.o
 .group         0x0000000000000000        0xc src/main.o
 .group         0x0000000000000000        0xc src/main.o
 .group         0x0000000000000000        0xc src/main.o
 .group         0x0000000000000000        0xc src/main.o
 .group         0x0000000000000000        0xc src/main.o
 .group         0x0000000000000000        0xc src/main.o
 .reginfo       0x0000000000000000       0x18 src/main.o
 .MIPS.abiflags
                0x0000000000000000       0x18 src/main.o
 .reginfo       0x0000000000000000       0x18 src/head.o
 .MIPS.abiflags
                0x0000000000000000       0x18 src/head.o
 .group         0x0000000000000000        0xc src/debug/code.o
 .group         0x0000000000000000        0xc src/debug/code.o
 .reginfo       0x0000000000000000       0x18 src/debug/code.o
 .MIPS.abiflags
                0x0000000000000000       0x18 src/debug/code.o
 .debug_macro   0x0000000000000000      0x760 src/debug/code.o
 .debug_macro   0x0000000000000000       0x28 src/debug/code.o
 .group         0x0000000000000000        0xc src/debug/mm.o
 .group         0x0000000000000000        0xc src/debug/mm.o
 .reginfo       0x0000000000000000       0x18 src/debug/mm.o
 .MIPS.abiflags
                0x0000000000000000       0x18 src/debug/mm.o
 .debug_macro   0x0000000000000000      0x760 src/debug/mm.o
 .debug_macro   0x0000000000000000       0x28 src/debug/mm.o
 .group         0x0000000000000000        0xc src/lib/print.o
 .group         0x0000000000000000        0xc src/lib/print.o
 .group         0x0000000000000000        0xc src/lib/print.o
 .group         0x0000000000000000        0xc src/lib/print.o
 .group         0x0000000000000000        0xc src/lib/print.o
 .group         0x0000000000000000        0xc src/lib/print.o
 .group         0x0000000000000000        0xc src/lib/print.o
 .group         0x0000000000000000        0xc src/lib/print.o
 .group         0x0000000000000000        0xc src/lib/print.o
 .reginfo       0x0000000000000000       0x18 src/lib/print.o
 .MIPS.abiflags
                0x0000000000000000       0x18 src/lib/print.o
 .debug_macro   0x0000000000000000      0x760 src/lib/print.o
 .debug_macro   0x0000000000000000       0x28 src/lib/print.o
 .debug_macro   0x0000000000000000       0x28 src/lib/print.o
 .debug_macro   0x0000000000000000       0x2e src/lib/print.o
 .debug_macro   0x0000000000000000       0x16 src/lib/print.o
 .debug_macro   0x0000000000000000       0x2e src/lib/print.o
 .group         0x0000000000000000        0xc src/lib/queue.o
 .group         0x0000000000000000        0xc src/lib/queue.o
 .group         0x0000000000000000        0xc src/lib/queue.o
 .group         0x0000000000000000        0xc src/lib/queue.o
 .group         0x0000000000000000        0xc src/lib/queue.o
 .group         0x0000000000000000        0xc src/lib/queue.o
 .reginfo       0x0000000000000000       0x18 src/lib/queue.o
 .MIPS.abiflags
                0x0000000000000000       0x18 src/lib/queue.o
 .debug_macro   0x0000000000000000      0x760 src/lib/queue.o
 .debug_macro   0x0000000000000000       0x28 src/lib/queue.o
 .debug_macro   0x0000000000000000       0x16 src/lib/queue.o
 .debug_macro   0x0000000000000000       0x2e src/lib/queue.o
 .debug_macro   0x0000000000000000       0x16 src/lib/queue.o
 .group         0x0000000000000000        0xc src/lib/runtime.o
 .reginfo       0x0000000000000000       0x18 src/lib/runtime.o
 .MIPS.abiflags
                0x0000000000000000       0x18 src/lib/runtime.o
 .debug_macro   0x0000000000000000      0x760 src/lib/runtime.o
 .group         0x0000000000000000        0xc src/mm/heap.o
 .group         0x0000000000000000        0xc src/mm/heap.o
 .group         0x0000000000000000        0xc src/mm/heap.o
 .group         0x0000000000000000        0xc src/mm/heap.o
 .reginfo       0x0000000000000000       0x18 src/mm/heap.o
 .MIPS.abiflags
                0x0000000000000000       0x18 src/mm/heap.o
 .debug_macro   0x0000000000000000      0x760 src/mm/heap.o
 .debug_macro   0x0000000000000000       0x28 src/mm/heap.o
 .debug_macro   0x0000000000000000       0x16 src/mm/heap.o
 .reginfo       0x0000000000000000       0x18 src/proc/context.o
 .MIPS.abiflags
                0x0000000000000000       0x18 src/proc/context.o
 .group         0x0000000000000000        0xc src/proc/scheduler.o
 .group         0x0000000000000000        0xc src/proc/scheduler.o
 .group         0x0000000000000000        0xc src/proc/scheduler.o
 .group         0x0000000000000000        0xc src/proc/scheduler.o
 .group         0x0000000000000000        0xc src/proc/scheduler.o
 .group         0x0000000000000000        0xc src/proc/scheduler.o
 .reginfo       0x0000000000000000       0x18 src/proc/scheduler.o
 .MIPS.abiflags
                0x0000000000000000       0x18 src/proc/scheduler.o
 .debug_macro   0x0000000000000000      0x760 src/proc/scheduler.o
 .debug_macro   0x0000000000000000       0x28 src/proc/scheduler.o
 .debug_macro   0x0000000000000000       0x28 src/proc/scheduler.o
 .debug_macro   0x0000000000000000       0x16 src/proc/scheduler.o
 .debug_macro   0x0000000000000000       0x2e src/proc/scheduler.o
 .debug_macro   0x0000000000000000       0x28 src/proc/scheduler.o
 .group         0x0000000000000000        0xc src/proc/thread.o
 .group         0x0000000000000000        0xc src/proc/thread.o
 .group         0x0000000000000000        0xc src/proc/thread.o
 .group         0x0000000000000000        0xc src/proc/thread.o
 .group         0x0000000000000000        0xc src/proc/thread.o
 .group         0x0000000000000000        0xc src/proc/thread.o
 .reginfo       0x0000000000000000       0x18 src/proc/thread.o
 .MIPS.abiflags
                0x0000000000000000       0x18 src/proc/thread.o
 .debug_macro   0x0000000000000000      0x760 src/proc/thread.o
 .debug_macro   0x0000000000000000       0x28 src/proc/thread.o
 .debug_macro   0x0000000000000000       0x28 src/proc/thread.o
 .debug_macro   0x0000000000000000       0x16 src/proc/thread.o
 .debug_macro   0x0000000000000000       0x16 src/proc/thread.o

Memory Configuration

Name             Origin             Length             Attributes
*default*        0x0000000000000000 0xffffffffffffffff

Linker script and memory map

                [!provide]                        PROVIDE (_kernel_start = 0x80000000)

.kernel         0x0000000080000000     0x5f44
 *(.excvec)
 .excvec        0x0000000080000000      0x438 src/head.o
                0x0000000080000000                exception_tlb_refill
                0x0000000080000100                exception_cache_error
                0x0000000080000180                exception_general
                0x0000000080000400                start
 *(.text .text.*)
 *fill*         0x0000000080000438        0x8 
 .text          0x0000000080000440      0x110 src/main.o
                0x0000000080000480                kernel_main
 .text          0x0000000080000550        0x0 src/head.o
 .text          0x0000000080000550       0x80 src/debug/code.o
                0x0000000080000550                debug_dump_function
 .text          0x00000000800005d0       0x60 src/debug/mm.o
                0x00000000800005d0                debug_get_base_memory_size
 .text          0x0000000080000630      0x8f0 src/lib/print.o
                0x0000000080000630                print_int
                0x00000000800006f8                printk
                0x0000000080000ec8                print_string
                0x0000000080000ef0                puts
 .text          0x0000000080000f20      0x150 src/lib/queue.o
                0x0000000080000f20                new_node
                0x0000000080000f50                create_queue
                0x0000000080000f74                enqueue
                0x0000000080000fdc                dequeue
                0x000000008000102c                get_next_ready
 .text          0x0000000080001070      0x320 src/lib/runtime.o
                0x0000000080001110                __udivdi3
                0x0000000080001174                __umoddi3
                0x00000000800011e4                __divdi3
                0x00000000800012d4                __moddi3
 .text          0x0000000080001390      0x480 src/mm/heap.o
                0x0000000080001390                count_biggest_free_block
                0x000000008000143c                heap_init
                0x0000000080001480                push_first
                0x00000000800014dc                push_back
                0x00000000800015e8                kmalloc
                0x00000000800016c0                delete_chunk
                0x0000000080001744                kfree
                0x0000000080001770                print_array
 .text          0x0000000080001810      0x130 src/proc/context.o
                0x0000000080001810                cpu_switch_context
 .text          0x0000000080001940      0x150 src/proc/scheduler.o
                0x0000000080001940                scheduler_init
                0x0000000080001964                scheduler_add_ready_thread
                0x0000000080001974                scheduler_remove_thread
                0x0000000080001984                scheduler_schedule_next
                0x0000000080001a24                dump_queue_info
 .text          0x0000000080001a90      0x2e0 src/proc/thread.o
                0x0000000080001a90                threads_init
                0x0000000080001a98                thread_create
                0x0000000080001b90                thread_get_current
                0x0000000080001b9c                thread_yield
                0x0000000080001c14                thread_suspend
                0x0000000080001c28                thread_finish
                0x0000000080001c30                thread_has_finished
                0x0000000080001c40                thread_wakeup
                0x0000000080001c70                thread_join
                0x0000000080001cc0                thread_switch_to
 *(.data)
 .data          0x0000000080001d70        0x0 src/main.o
 .data          0x0000000080001d70        0x0 src/head.o
 .data          0x0000000080001d70        0x0 src/debug/code.o
 .data          0x0000000080001d70        0x0 src/debug/mm.o
 .data          0x0000000080001d70        0x0 src/lib/print.o
 .data          0x0000000080001d70        0x0 src/lib/queue.o
 .data          0x0000000080001d70        0x0 src/lib/runtime.o
 .data          0x0000000080001d70        0x0 src/mm/heap.o
 .data          0x0000000080001d70        0x0 src/proc/context.o
 .data          0x0000000080001d70        0x0 src/proc/scheduler.o
 .data          0x0000000080001d70        0x0 src/proc/thread.o
 *(.rodata .rodata.*)
 .rodata.str1.4
                0x0000000080001d70      0x147 src/main.o
                                        0x148 (size before relaxing)
 *fill*         0x0000000080001eb7        0x9 
 .rodata        0x0000000080001ec0       0x20 src/main.o
 .rodata.str1.4
                0x0000000080001ee0       0x1b src/debug/code.o
                                         0x1c (size before relaxing)
 *fill*         0x0000000080001efb        0x1 
 .rodata.str1.4
                0x0000000080001efc       0x69 src/lib/print.o
                                         0x6c (size before relaxing)
 *fill*         0x0000000080001f65        0x3 
 .rodata.str1.4
                0x0000000080001f68       0x3d src/mm/heap.o
                                         0x40 (size before relaxing)
 *fill*         0x0000000080001fa5        0x3 
 .rodata.str1.4
                0x0000000080001fa8       0x56 src/proc/scheduler.o
                                         0x58 (size before relaxing)
 *fill*         0x0000000080001ffe        0x2 
 .rodata.str1.4
                0x0000000080002000       0xa4 src/proc/thread.o
 *(.bss .bss.*)
 *fill*         0x00000000800020a4        0xc 
 .bss           0x00000000800020b0        0x0 src/main.o
 .bss           0x00000000800020b0        0x0 src/head.o
 .bss           0x00000000800020b0        0x0 src/debug/code.o
 .bss           0x00000000800020b0        0x0 src/debug/mm.o
 .bss           0x00000000800020b0        0x0 src/lib/print.o
 .bss           0x00000000800020b0        0x0 src/lib/queue.o
 .bss           0x00000000800020b0        0x0 src/lib/runtime.o
 .bss           0x00000000800020b0        0x0 src/mm/heap.o
 .bss           0x00000000800020b0        0x0 src/proc/context.o
 .bss           0x00000000800020b0        0x0 src/proc/scheduler.o
 .bss           0x00000000800020b0        0x0 src/proc/thread.o
 *(COMMON)
 COMMON         0x00000000800020b0     0x3e94 src/main.o
                0x00000000800020b0                queue
                0x00000000800020b4                current_thread
                0x00000000800020b8                mem_left
                0x00000000800020bc                heap
                0x0000000080005f40                biggest_gap_index
                0x0000000080005f44                _kernel_end = .

.stab
 *(.stab)

.stabstr
 *(.stabstr)

.stab.excl
 *(.stab.excl)

.stab.exclstr
 *(.stab.exclstr)

.stab.index
 *(.stab.index)

.stab.indexstr
 *(.stab.indexstr)

.comment        0x0000000000000000       0x20
 *(.comment)
 .comment       0x0000000000000000       0x20 src/main.o
                                         0x21 (size before relaxing)
 .comment       0x0000000000000020       0x21 src/debug/code.o
 .comment       0x0000000000000020       0x21 src/debug/mm.o
 .comment       0x0000000000000020       0x21 src/lib/print.o
 .comment       0x0000000000000020       0x21 src/lib/queue.o
 .comment       0x0000000000000020       0x21 src/lib/runtime.o
 .comment       0x0000000000000020       0x21 src/mm/heap.o
 .comment       0x0000000000000020       0x21 src/proc/scheduler.o
 .comment       0x0000000000000020       0x21 src/proc/thread.o

.pdr            0x0000000000000000      0x5c0
 .pdr           0x0000000000000000       0x40 src/main.o
 .pdr           0x0000000000000040       0x80 src/head.o
 .pdr           0x00000000000000c0       0x20 src/debug/code.o
 .pdr           0x00000000000000e0       0x20 src/debug/mm.o
 .pdr           0x0000000000000100       0x80 src/lib/print.o
 .pdr           0x0000000000000180       0xa0 src/lib/queue.o
 .pdr           0x0000000000000220       0xa0 src/lib/runtime.o
 .pdr           0x00000000000002c0      0x100 src/mm/heap.o
 .pdr           0x00000000000003c0       0x20 src/proc/context.o
 .pdr           0x00000000000003e0       0xa0 src/proc/scheduler.o
 .pdr           0x0000000000000480      0x140 src/proc/thread.o

.mdebug.abi32   0x0000000000000000        0x0
 .mdebug.abi32  0x0000000000000000        0x0 src/main.o
 .mdebug.abi32  0x0000000000000000        0x0 src/debug/code.o
 .mdebug.abi32  0x0000000000000000        0x0 src/debug/mm.o
 .mdebug.abi32  0x0000000000000000        0x0 src/lib/print.o
 .mdebug.abi32  0x0000000000000000        0x0 src/lib/queue.o
 .mdebug.abi32  0x0000000000000000        0x0 src/lib/runtime.o
 .mdebug.abi32  0x0000000000000000        0x0 src/mm/heap.o
 .mdebug.abi32  0x0000000000000000        0x0 src/proc/scheduler.o
 .mdebug.abi32  0x0000000000000000        0x0 src/proc/thread.o

.debug
 *(.debug)

.line
 *(.line)

.debug_srcinfo
 *(.debug_srcinfo)

.debug_sfnames
 *(.debug_sfnames)

.debug_aranges  0x0000000000000000      0x160
 *(.debug_aranges)
 .debug_aranges
                0x0000000000000000       0x20 src/main.o
 .debug_aranges
                0x0000000000000020       0x20 src/head.o
 .debug_aranges
                0x0000000000000040       0x20 src/debug/code.o
 .debug_aranges
                0x0000000000000060       0x20 src/debug/mm.o
 .debug_aranges
                0x0000000000000080       0x20 src/lib/print.o
 .debug_aranges
                0x00000000000000a0       0x20 src/lib/queue.o
 .debug_aranges
                0x00000000000000c0       0x20 src/lib/runtime.o
 .debug_aranges
                0x00000000000000e0       0x20 src/mm/heap.o
 .debug_aranges
                0x0000000000000100       0x20 src/proc/context.o
 .debug_aranges
                0x0000000000000120       0x20 src/proc/scheduler.o
 .debug_aranges
                0x0000000000000140       0x20 src/proc/thread.o

.debug_pubnames
 *(.debug_pubnames)

.debug_info     0x0000000000000000     0x3f51
 *(.debug_info .gnu.linkonce.wi.*)
 .debug_info    0x0000000000000000      0x734 src/main.o
 .debug_info    0x0000000000000734       0x26 src/head.o
 .debug_info    0x000000000000075a      0x16e src/debug/code.o
 .debug_info    0x00000000000008c8       0xfe src/debug/mm.o
 .debug_info    0x00000000000009c6     0x142a src/lib/print.o
 .debug_info    0x0000000000001df0      0x695 src/lib/queue.o
 .debug_info    0x0000000000002485      0x4ac src/lib/runtime.o
 .debug_info    0x0000000000002931      0x58d src/mm/heap.o
 .debug_info    0x0000000000002ebe       0x26 src/proc/context.o
 .debug_info    0x0000000000002ee4      0x61f src/proc/scheduler.o
 .debug_info    0x0000000000003503      0xa4e src/proc/thread.o

.debug_abbrev   0x0000000000000000     0x115c
 *(.debug_abbrev)
 .debug_abbrev  0x0000000000000000      0x235 src/main.o
 .debug_abbrev  0x0000000000000235       0x14 src/head.o
 .debug_abbrev  0x0000000000000249       0xc5 src/debug/code.o
 .debug_abbrev  0x000000000000030e       0x98 src/debug/mm.o
 .debug_abbrev  0x00000000000003a6      0x2d6 src/lib/print.o
 .debug_abbrev  0x000000000000067c      0x23d src/lib/queue.o
 .debug_abbrev  0x00000000000008b9      0x1a7 src/lib/runtime.o
 .debug_abbrev  0x0000000000000a60      0x26d src/mm/heap.o
 .debug_abbrev  0x0000000000000ccd       0x14 src/proc/context.o
 .debug_abbrev  0x0000000000000ce1      0x15c src/proc/scheduler.o
 .debug_abbrev  0x0000000000000e3d      0x31f src/proc/thread.o

.debug_line     0x0000000000000000     0x1f2d
 *(.debug_line)
 .debug_line    0x0000000000000000      0x1b1 src/main.o
 .debug_line    0x00000000000001b1       0x41 src/head.o
 .debug_line    0x00000000000001f2       0xd5 src/debug/code.o
 .debug_line    0x00000000000002c7       0xad src/debug/mm.o
 .debug_line    0x0000000000000374      0xcdc src/lib/print.o
 .debug_line    0x0000000000001050      0x1fc src/lib/queue.o
 .debug_line    0x000000000000124c      0x2af src/lib/runtime.o
 .debug_line    0x00000000000014fb      0x484 src/mm/heap.o
 .debug_line    0x000000000000197f       0x5c src/proc/context.o
 .debug_line    0x00000000000019db      0x1b1 src/proc/scheduler.o
 .debug_line    0x0000000000001b8c      0x3a1 src/proc/thread.o

.debug_frame    0x0000000000000000      0x500
 *(.debug_frame)
 .debug_frame   0x0000000000000000       0x4c src/main.o
 .debug_frame   0x000000000000004c       0x38 src/debug/code.o
 .debug_frame   0x0000000000000084       0x20 src/debug/mm.o
 .debug_frame   0x00000000000000a4       0x88 src/lib/print.o
 .debug_frame   0x000000000000012c       0x98 src/lib/queue.o
 .debug_frame   0x00000000000001c4       0xa4 src/lib/runtime.o
 .debug_frame   0x0000000000000268       0xe0 src/mm/heap.o
 .debug_frame   0x0000000000000348       0x9c src/proc/scheduler.o
 .debug_frame   0x00000000000003e4      0x11c src/proc/thread.o

.debug_str      0x0000000000000000     0x3286
 *(.debug_str)
 .debug_str     0x0000000000000000     0x2a66 src/main.o
                                       0x2b46 (size before relaxing)
 .debug_str     0x0000000000002a66       0x19 src/head.o
                                         0x52 (size before relaxing)
 .debug_str     0x0000000000002a7f       0x50 src/debug/code.o
                                       0x2261 (size before relaxing)
 .debug_str     0x0000000000002acf       0x52 src/debug/mm.o
                                       0x226b (size before relaxing)
 .debug_str     0x0000000000002b21      0x3ea src/lib/print.o
                                       0x2a3b (size before relaxing)
 .debug_str     0x0000000000002f0b       0x69 src/lib/queue.o
                                       0x24bc (size before relaxing)
 .debug_str     0x0000000000002f74       0x87 src/lib/runtime.o
                                       0x2160 (size before relaxing)
 .debug_str     0x0000000000002ffb       0xff src/mm/heap.o
                                       0x241b (size before relaxing)
 .debug_str     0x00000000000030fa       0x13 src/proc/context.o
                                         0x5a (size before relaxing)
 .debug_str     0x000000000000310d       0x75 src/proc/scheduler.o
                                       0x2752 (size before relaxing)
 .debug_str     0x0000000000003182      0x104 src/proc/thread.o
                                       0x2644 (size before relaxing)

.debug_loc      0x0000000000000000     0x212c
 *(.debug_loc)
 .debug_loc     0x0000000000000000       0x83 src/main.o
 .debug_loc     0x0000000000000083       0xea src/debug/code.o
 .debug_loc     0x000000000000016d       0x58 src/debug/mm.o
 .debug_loc     0x00000000000001c5      0xe9d src/lib/print.o
 .debug_loc     0x0000000000001062      0x291 src/lib/queue.o
 .debug_loc     0x00000000000012f3      0x612 src/lib/runtime.o
 .debug_loc     0x0000000000001905      0x3fa src/mm/heap.o
 .debug_loc     0x0000000000001cff      0x10e src/proc/scheduler.o
 .debug_loc     0x0000000000001e0d      0x31f src/proc/thread.o

.debug_macinfo
 *(.debug_macinfo)

.debug_weaknames
 *(.debug_weaknames)

.debug_funcnames
 *(.debug_funcnames)

.debug_typenames
 *(.debug_typenames)

.debug_varnames
 *(.debug_varnames)

.debug_pubtypes
 *(.debug_pubtypes)

.debug_ranges   0x0000000000000000      0x688
 *(.debug_ranges)
 .debug_ranges  0x0000000000000000      0x3b8 src/lib/print.o
 .debug_ranges  0x00000000000003b8       0x20 src/lib/queue.o
 .debug_ranges  0x00000000000003d8      0x188 src/lib/runtime.o
 .debug_ranges  0x0000000000000560       0x88 src/mm/heap.o
 .debug_ranges  0x00000000000005e8       0xa0 src/proc/thread.o

.gnu.attributes
                0x0000000000000000       0x10
 *(.gnu.attributes)
 .gnu.attributes
                0x0000000000000000       0x10 src/main.o
 .gnu.attributes
                0x0000000000000010       0x10 src/head.o
 .gnu.attributes
                0x0000000000000020       0x10 src/debug/code.o
 .gnu.attributes
                0x0000000000000030       0x10 src/debug/mm.o
 .gnu.attributes
                0x0000000000000040       0x10 src/lib/print.o
 .gnu.attributes
                0x0000000000000050       0x10 src/lib/queue.o
 .gnu.attributes
                0x0000000000000060       0x10 src/lib/runtime.o
 .gnu.attributes
                0x0000000000000070       0x10 src/mm/heap.o
 .gnu.attributes
                0x0000000000000080       0x10 src/proc/context.o
 .gnu.attributes
                0x0000000000000090       0x10 src/proc/scheduler.o
 .gnu.attributes
                0x00000000000000a0       0x10 src/proc/thread.o

/DISCARD/
 *(.eh_frame)
 *(.reginfo)
 *(.MIPS.abiflags)
LOAD src/main.o
LOAD src/head.o
LOAD src/debug/code.o
LOAD src/debug/mm.o
LOAD src/lib/print.o
LOAD src/lib/queue.o
LOAD src/lib/runtime.o
LOAD src/mm/heap.o
LOAD src/proc/context.o
LOAD src/proc/scheduler.o
LOAD src/proc/thread.o
OUTPUT(kernel.raw elf32-tradlittlemips)

.debug_macro    0x0000000000000000      0xc5e
 .debug_macro   0x0000000000000000       0x9c src/main.o
 .debug_macro   0x000000000000009c      0x760 src/main.o
 .debug_macro   0x00000000000007fc       0x28 src/main.o
 .debug_macro   0x0000000000000824       0x28 src/main.o
 .debug_macro   0x000000000000084c       0x2e src/main.o
 .debug_macro   0x000000000000087a       0x16 src/main.o
 .debug_macro   0x0000000000000890       0x2e src/main.o
 .debug_macro   0x00000000000008be       0x3a src/main.o
 .debug_macro   0x00000000000008f8       0x16 src/main.o
 .debug_macro   0x000000000000090e       0x2e src/debug/code.o
 .debug_macro   0x000000000000093c       0x3a src/debug/mm.o
 .debug_macro   0x0000000000000976       0x83 src/lib/print.o
 .debug_macro   0x00000000000009f9       0x1c src/lib/print.o
 .debug_macro   0x0000000000000a15       0x10 src/lib/print.o
 .debug_macro   0x0000000000000a25       0x22 src/lib/print.o
 .debug_macro   0x0000000000000a47       0x5e src/lib/queue.o
 .debug_macro   0x0000000000000aa5       0x28 src/lib/queue.o
 .debug_macro   0x0000000000000acd       0x1b src/lib/runtime.o
 .debug_macro   0x0000000000000ae8       0x4a src/mm/heap.o
 .debug_macro   0x0000000000000b32       0x10 src/mm/heap.o
 .debug_macro   0x0000000000000b42       0x7c src/proc/scheduler.o
 .debug_macro   0x0000000000000bbe       0x6c src/proc/thread.o
 .debug_macro   0x0000000000000c2a       0x34 src/proc/thread.o
