
kernel.raw:     file format elf32-tradlittlemips


Disassembly of section .kernel:

80000000 <exception_tlb_refill>:
80000000:	00000037 	0x37
80000004:	00000029 	0x29
	...

80000100 <exception_cache_error>:
80000100:	00000037 	0x37
80000104:	00000029 	0x29
	...

80000180 <exception_general>:
80000180:	00000037 	0x37
80000184:	00000029 	0x29
	...

80000400 <start>:
80000400:	3c1d8000 	lui	sp,0x8000
80000404:	37bd0400 	ori	sp,sp,0x400
80000408:	3c1c8000 	lui	gp,0x8000
8000040c:	3c1bffbf 	lui	k1,0xffbf
80000410:	377bffff 	ori	k1,k1,0xffff
80000414:	401a6000 	mfc0	k0,c0_sr
80000418:	035bd024 	and	k0,k0,k1
8000041c:	409a6000 	mtc0	k0,c0_sr
80000420:	00000000 	nop
80000424:	0c000110 	jal	80000440 <kernel_main>
80000428:	00000000 	nop
8000042c:	00000028 	0x28
80000430:	0800010c 	j	80000430 <start+0x30>
80000434:	00000000 	nop
	...

80000440 <kernel_main>:
80000440:	27bdffe8 	addiu	sp,sp,-24
80000444:	afbf0014 	sw	ra,20(sp)
80000448:	0c0003fc 	jal	80000ff0 <heap_init>
8000044c:	00000000 	nop
80000450:	8fbf0014 	lw	ra,20(sp)
80000454:	08000608 	j	80001820 <kernel_test>
80000458:	27bd0018 	addiu	sp,sp,24
8000045c:	00000000 	nop

80000460 <debug_dump_function>:
80000460:	27bdffd8 	addiu	sp,sp,-40
80000464:	afb2001c 	sw	s2,28(sp)
80000468:	00c09025 	move	s2,a2
8000046c:	00803025 	move	a2,a0
80000470:	3c048000 	lui	a0,0x8000
80000474:	24841f70 	addiu	a0,a0,8048
80000478:	afb00014 	sw	s0,20(sp)
8000047c:	afbf0024 	sw	ra,36(sp)
80000480:	afb30020 	sw	s3,32(sp)
80000484:	afb10018 	sw	s1,24(sp)
80000488:	0c00017e 	jal	800005f8 <printk>
8000048c:	00a08025 	move	s0,a1
80000490:	1240000a 	beqz	s2,800004bc <debug_dump_function+0x5c>
80000494:	3c138000 	lui	s3,0x8000
80000498:	00008825 	move	s1,zero
8000049c:	26731f7c 	addiu	s3,s3,8060
800004a0:	8e060000 	lw	a2,0(s0)
800004a4:	02002825 	move	a1,s0
800004a8:	02602025 	move	a0,s3
800004ac:	0c00017e 	jal	800005f8 <printk>
800004b0:	26310001 	addiu	s1,s1,1
800004b4:	1651fffa 	bne	s2,s1,800004a0 <debug_dump_function+0x40>
800004b8:	26100004 	addiu	s0,s0,4
800004bc:	8fbf0024 	lw	ra,36(sp)
800004c0:	8fb30020 	lw	s3,32(sp)
800004c4:	8fb2001c 	lw	s2,28(sp)
800004c8:	8fb10018 	lw	s1,24(sp)
800004cc:	8fb00014 	lw	s0,20(sp)
800004d0:	03e00008 	jr	ra
800004d4:	27bd0028 	addiu	sp,sp,40
	...

800004e0 <debug_get_base_memory_size>:
800004e0:	3c058000 	lui	a1,0x8000
800004e4:	24a56960 	addiu	a1,a1,26976
800004e8:	80a30001 	lb	v1,1(a1)
800004ec:	2402ffff 	li	v0,-1
800004f0:	1062000a 	beq	v1,v0,8000051c <debug_get_base_memory_size+0x3c>
800004f4:	3c038000 	lui	v1,0x8000
800004f8:	24636962 	addiu	v1,v1,26978
800004fc:	00052827 	nor	a1,zero,a1
80000500:	2406ffff 	li	a2,-1
80000504:	80640000 	lb	a0,0(v1)
80000508:	00651021 	addu	v0,v1,a1
8000050c:	1486fffd 	bne	a0,a2,80000504 <debug_get_base_memory_size+0x24>
80000510:	24630001 	addiu	v1,v1,1
80000514:	03e00008 	jr	ra
80000518:	00000000 	nop
8000051c:	03e00008 	jr	ra
80000520:	00001025 	move	v0,zero
	...

80000530 <print_int>:
80000530:	27bdffc8 	addiu	sp,sp,-56
80000534:	27a90031 	addiu	t1,sp,49
80000538:	01201025 	move	v0,t1
8000053c:	a3a00031 	sb	zero,49(sp)
80000540:	0086001b 	divu	zero,a0,a2
80000544:	00000000 	nop
80000548:	00c001f4 	teq	a2,zero,0x7
8000054c:	2442ffff 	addiu	v0,v0,-1
80000550:	0086402b 	sltu	t0,a0,a2
80000554:	01225023 	subu	t2,t1,v0
80000558:	00001810 	mfhi	v1
8000055c:	00a31821 	addu	v1,a1,v1
80000560:	80630000 	lb	v1,0(v1)
80000564:	00002012 	mflo	a0
80000568:	1100fff5 	beqz	t0,80000540 <print_int+0x10>
8000056c:	a0430000 	sb	v1,0(v0)
80000570:	24040010 	li	a0,16
80000574:	10c4000a 	beq	a2,a0,800005a0 <print_int+0x70>
80000578:	29440008 	slti	a0,t2,8
8000057c:	10600006 	beqz	v1,80000598 <print_int+0x68>
80000580:	00000000 	nop
80000584:	3c049000 	lui	a0,0x9000
80000588:	a0830000 	sb	v1,0(a0)
8000058c:	80430001 	lb	v1,1(v0)
80000590:	1460fffd 	bnez	v1,80000588 <print_int+0x58>
80000594:	24420001 	addiu	v0,v0,1
80000598:	03e00008 	jr	ra
8000059c:	27bd0038 	addiu	sp,sp,56
800005a0:	1080fff6 	beqz	a0,8000057c <print_int+0x4c>
800005a4:	00000000 	nop
800005a8:	10e0fff4 	beqz	a3,8000057c <print_int+0x4c>
800005ac:	00000000 	nop
800005b0:	00401825 	move	v1,v0
800005b4:	24050030 	li	a1,48
800005b8:	2463ffff 	addiu	v1,v1,-1
800005bc:	01232023 	subu	a0,t1,v1
800005c0:	2c840008 	sltiu	a0,a0,8
800005c4:	1480fffc 	bnez	a0,800005b8 <print_int+0x88>
800005c8:	a0650000 	sb	a1,0(v1)
800005cc:	25430001 	addiu	v1,t2,1
800005d0:	2c630009 	sltiu	v1,v1,9
800005d4:	14600004 	bnez	v1,800005e8 <print_int+0xb8>
800005d8:	2404ffff 	li	a0,-1
800005dc:	00441021 	addu	v0,v0,a0
800005e0:	1000ffe8 	b	80000584 <print_int+0x54>
800005e4:	24030030 	li	v1,48
800005e8:	2544fff8 	addiu	a0,t2,-8
800005ec:	00441021 	addu	v0,v0,a0
800005f0:	1000ffe4 	b	80000584 <print_int+0x54>
800005f4:	24030030 	li	v1,48

800005f8 <printk>:
800005f8:	27bdff88 	addiu	sp,sp,-120
800005fc:	afbf0074 	sw	ra,116(sp)
80000600:	afb50070 	sw	s5,112(sp)
80000604:	afb4006c 	sw	s4,108(sp)
80000608:	afb30068 	sw	s3,104(sp)
8000060c:	afb20064 	sw	s2,100(sp)
80000610:	afb10060 	sw	s1,96(sp)
80000614:	afb0005c 	sw	s0,92(sp)
80000618:	afa5007c 	sw	a1,124(sp)
8000061c:	afa60080 	sw	a2,128(sp)
80000620:	afa70084 	sw	a3,132(sp)
80000624:	80820000 	lb	v0,0(a0)
80000628:	27a3007c 	addiu	v1,sp,124
8000062c:	10400013 	beqz	v0,8000067c <printk+0x84>
80000630:	afa30054 	sw	v1,84(sp)
80000634:	3c0c8000 	lui	t4,0x8000
80000638:	8d8e1f94 	lw	t6,8084(t4)
8000063c:	3c0d8000 	lui	t5,0x8000
80000640:	3c0f8000 	lui	t7,0x8000
80000644:	8db01fa8 	lw	s0,8104(t5)
80000648:	8df91fb4 	lw	t9,8116(t7)
8000064c:	00805825 	move	t3,a0
80000650:	01c0c025 	move	t8,t6
80000654:	3c118000 	lui	s1,0x8000
80000658:	24030025 	li	v1,37
8000065c:	10430010 	beq	v0,v1,800006a0 <printk+0xa8>
80000660:	25640001 	addiu	a0,t3,1
80000664:	3c039000 	lui	v1,0x9000
80000668:	a0620000 	sb	v0,0(v1)
8000066c:	00805825 	move	t3,a0
80000670:	81620000 	lb	v0,0(t3)
80000674:	1440fff9 	bnez	v0,8000065c <printk+0x64>
80000678:	24030025 	li	v1,37
8000067c:	8fbf0074 	lw	ra,116(sp)
80000680:	8fb50070 	lw	s5,112(sp)
80000684:	8fb4006c 	lw	s4,108(sp)
80000688:	8fb30068 	lw	s3,104(sp)
8000068c:	8fb20064 	lw	s2,100(sp)
80000690:	8fb10060 	lw	s1,96(sp)
80000694:	8fb0005c 	lw	s0,92(sp)
80000698:	03e00008 	jr	ra
8000069c:	27bd0078 	addiu	sp,sp,120
800006a0:	81630001 	lb	v1,1(t3)
800006a4:	54620005 	bnel	v1,v0,800006bc <printk+0xc4>
800006a8:	24020073 	li	v0,115
800006ac:	3c039000 	lui	v1,0x9000
800006b0:	a0620000 	sb	v0,0(v1)
800006b4:	81630001 	lb	v1,1(t3)
800006b8:	24020073 	li	v0,115
800006bc:	106200bb 	beq	v1,v0,800009ac <printk+0x3b4>
800006c0:	24020075 	li	v0,117
800006c4:	106200ca 	beq	v1,v0,800009f0 <printk+0x3f8>
800006c8:	8fa20054 	lw	v0,84(sp)
800006cc:	24020078 	li	v0,120
800006d0:	106200ef 	beq	v1,v0,80000a90 <printk+0x498>
800006d4:	8fa20054 	lw	v0,84(sp)
800006d8:	24020058 	li	v0,88
800006dc:	1062010e 	beq	v1,v0,80000b18 <printk+0x520>
800006e0:	8fa20054 	lw	v0,84(sp)
800006e4:	24020064 	li	v0,100
800006e8:	5062012c 	beql	v1,v0,80000b9c <printk+0x5a4>
800006ec:	8fa30054 	lw	v1,84(sp)
800006f0:	24020063 	li	v0,99
800006f4:	14620009 	bne	v1,v0,8000071c <printk+0x124>
800006f8:	24020070 	li	v0,112
800006fc:	8fa20054 	lw	v0,84(sp)
80000700:	80430000 	lb	v1,0(v0)
80000704:	24420004 	addiu	v0,v0,4
80000708:	afa20054 	sw	v0,84(sp)
8000070c:	3c029000 	lui	v0,0x9000
80000710:	a0430000 	sb	v1,0(v0)
80000714:	81630001 	lb	v1,1(t3)
80000718:	24020070 	li	v0,112
8000071c:	50620016 	beql	v1,v0,80000778 <printk+0x180>
80000720:	25831f94 	addiu	v1,t4,8084
80000724:	24020061 	li	v0,97
80000728:	1462ffd1 	bne	v1,v0,80000670 <printk+0x78>
8000072c:	248b0001 	addiu	t3,a0,1
80000730:	8fa20054 	lw	v0,84(sp)
80000734:	25831f94 	addiu	v1,t4,8084
80000738:	8c690004 	lw	t1,4(v1)
8000073c:	8c680008 	lw	t0,8(v1)
80000740:	8c440000 	lw	a0,0(v0)
80000744:	8c63000c 	lw	v1,12(v1)
80000748:	24420004 	addiu	v0,v0,4
8000074c:	24070001 	li	a3,1
80000750:	24060010 	li	a2,16
80000754:	27a50010 	addiu	a1,sp,16
80000758:	afa20054 	sw	v0,84(sp)
8000075c:	afae0010 	sw	t6,16(sp)
80000760:	afa90014 	sw	t1,20(sp)
80000764:	afa80018 	sw	t0,24(sp)
80000768:	0c00014c 	jal	80000530 <print_int>
8000076c:	afa3001c 	sw	v1,28(sp)
80000770:	1000ffc0 	b	80000674 <printk+0x7c>
80000774:	81620000 	lb	v0,0(t3)
80000778:	8fa20054 	lw	v0,84(sp)
8000077c:	8c690004 	lw	t1,4(v1)
80000780:	8c680008 	lw	t0,8(v1)
80000784:	8c67000c 	lw	a3,12(v1)
80000788:	81660002 	lb	a2,2(t3)
8000078c:	2405004c 	li	a1,76
80000790:	8c430000 	lw	v1,0(v0)
80000794:	25640002 	addiu	a0,t3,2
80000798:	afb80044 	sw	t8,68(sp)
8000079c:	afa90048 	sw	t1,72(sp)
800007a0:	afa8004c 	sw	t0,76(sp)
800007a4:	afa70050 	sw	a3,80(sp)
800007a8:	14c50062 	bne	a2,a1,80000934 <printk+0x33c>
800007ac:	24420004 	addiu	v0,v0,4
800007b0:	afa20054 	sw	v0,84(sp)
800007b4:	3c059000 	lui	a1,0x9000
800007b8:	24020030 	li	v0,48
800007bc:	24070078 	li	a3,120
800007c0:	a0a20000 	sb	v0,0(a1)
800007c4:	00603025 	move	a2,v1
800007c8:	a0a70000 	sb	a3,0(a1)
800007cc:	27a20041 	addiu	v0,sp,65
800007d0:	27a70010 	addiu	a3,sp,16
800007d4:	a3a00041 	sb	zero,65(sp)
800007d8:	30c5000f 	andi	a1,a2,0xf
800007dc:	00e52821 	addu	a1,a3,a1
800007e0:	80a50034 	lb	a1,52(a1)
800007e4:	2cc80010 	sltiu	t0,a2,16
800007e8:	2442ffff 	addiu	v0,v0,-1
800007ec:	00063102 	srl	a2,a2,0x4
800007f0:	1100fff9 	beqz	t0,800007d8 <printk+0x1e0>
800007f4:	a0450000 	sb	a1,0(v0)
800007f8:	10a00005 	beqz	a1,80000810 <printk+0x218>
800007fc:	3c069000 	lui	a2,0x9000
80000800:	a0c50000 	sb	a1,0(a2)
80000804:	80450001 	lb	a1,1(v0)
80000808:	14a0fffd 	bnez	a1,80000800 <printk+0x208>
8000080c:	24420001 	addiu	v0,v0,1
80000810:	8c690004 	lw	t1,4(v1)
80000814:	00002825 	move	a1,zero
80000818:	10690109 	beq	v1,t1,80000c40 <printk+0x648>
8000081c:	01201025 	move	v0,t1
80000820:	8c420004 	lw	v0,4(v0)
80000824:	00a04025 	move	t0,a1
80000828:	1443fffd 	bne	v0,v1,80000820 <printk+0x228>
8000082c:	24a50001 	addiu	a1,a1,1
80000830:	10a00103 	beqz	a1,80000c40 <printk+0x648>
80000834:	3c029000 	lui	v0,0x9000
80000838:	2403005b 	li	v1,91
8000083c:	3c12cccc 	lui	s2,0xcccc
80000840:	a0430000 	sb	v1,0(v0)
80000844:	27a60041 	addiu	a2,sp,65
80000848:	a3a00041 	sb	zero,65(sp)
8000084c:	3652cccd 	ori	s2,s2,0xcccd
80000850:	00b20019 	multu	a1,s2
80000854:	00001810 	mfhi	v1
80000858:	24c6ffff 	addiu	a2,a2,-1
8000085c:	2caa000a 	sltiu	t2,a1,10
80000860:	000318c2 	srl	v1,v1,0x3
80000864:	00031080 	sll	v0,v1,0x2
80000868:	00431021 	addu	v0,v0,v1
8000086c:	00021040 	sll	v0,v0,0x1
80000870:	00a21023 	subu	v0,a1,v0
80000874:	00e21021 	addu	v0,a3,v0
80000878:	80420034 	lb	v0,52(v0)
8000087c:	00602825 	move	a1,v1
80000880:	1140fff3 	beqz	t2,80000850 <printk+0x258>
80000884:	a0c20000 	sb	v0,0(a2)
80000888:	10400005 	beqz	v0,800008a0 <printk+0x2a8>
8000088c:	3c039000 	lui	v1,0x9000
80000890:	a0620000 	sb	v0,0(v1)
80000894:	80c20001 	lb	v0,1(a2)
80000898:	1440fffd 	bnez	v0,80000890 <printk+0x298>
8000089c:	24c60001 	addiu	a2,a2,1
800008a0:	3c029000 	lui	v0,0x9000
800008a4:	2403003a 	li	v1,58
800008a8:	a0430000 	sb	v1,0(v0)
800008ac:	24030020 	li	v1,32
800008b0:	00009025 	move	s2,zero
800008b4:	a0430000 	sb	v1,0(v0)
800008b8:	3c0a9000 	lui	t2,0x9000
800008bc:	24140030 	li	s4,48
800008c0:	24130078 	li	s3,120
800008c4:	2415002d 	li	s5,45
800008c8:	a1540000 	sb	s4,0(t2)
800008cc:	01202825 	move	a1,t1
800008d0:	a1530000 	sb	s3,0(t2)
800008d4:	27a20041 	addiu	v0,sp,65
800008d8:	a3a00041 	sb	zero,65(sp)
800008dc:	30a3000f 	andi	v1,a1,0xf
800008e0:	00e31821 	addu	v1,a3,v1
800008e4:	80630034 	lb	v1,52(v1)
800008e8:	2ca60010 	sltiu	a2,a1,16
800008ec:	2442ffff 	addiu	v0,v0,-1
800008f0:	00052902 	srl	a1,a1,0x4
800008f4:	10c0fff9 	beqz	a2,800008dc <printk+0x2e4>
800008f8:	a0430000 	sb	v1,0(v0)
800008fc:	106000d9 	beqz	v1,80000c64 <printk+0x66c>
80000900:	00000000 	nop
80000904:	a1430000 	sb	v1,0(t2)
80000908:	80430001 	lb	v1,1(v0)
8000090c:	1460fffd 	bnez	v1,80000904 <printk+0x30c>
80000910:	24420001 	addiu	v0,v0,1
80000914:	52480021 	beql	s2,t0,8000099c <printk+0x3a4>
80000918:	2403005d 	li	v1,93
8000091c:	a1550000 	sb	s5,0(t2)
80000920:	8d290004 	lw	t1,4(t1)
80000924:	1248001c 	beq	s2,t0,80000998 <printk+0x3a0>
80000928:	26420001 	addiu	v0,s2,1
8000092c:	1000ffe6 	b	800008c8 <printk+0x2d0>
80000930:	00409025 	move	s2,v0
80000934:	3c059000 	lui	a1,0x9000
80000938:	24060030 	li	a2,48
8000093c:	afa20054 	sw	v0,84(sp)
80000940:	a0a60000 	sb	a2,0(a1)
80000944:	24060078 	li	a2,120
80000948:	a0a60000 	sb	a2,0(a1)
8000094c:	27a20041 	addiu	v0,sp,65
80000950:	27a70010 	addiu	a3,sp,16
80000954:	a3a00041 	sb	zero,65(sp)
80000958:	3065000f 	andi	a1,v1,0xf
8000095c:	00e52821 	addu	a1,a3,a1
80000960:	80a50034 	lb	a1,52(a1)
80000964:	2c660010 	sltiu	a2,v1,16
80000968:	2442ffff 	addiu	v0,v0,-1
8000096c:	00031902 	srl	v1,v1,0x4
80000970:	10c0fff9 	beqz	a2,80000958 <printk+0x360>
80000974:	a0450000 	sb	a1,0(v0)
80000978:	10a0ff3c 	beqz	a1,8000066c <printk+0x74>
8000097c:	3c039000 	lui	v1,0x9000
80000980:	a0650000 	sb	a1,0(v1)
80000984:	80450001 	lb	a1,1(v0)
80000988:	14a0fffd 	bnez	a1,80000980 <printk+0x388>
8000098c:	24420001 	addiu	v0,v0,1
80000990:	1000ff37 	b	80000670 <printk+0x78>
80000994:	00805825 	move	t3,a0
80000998:	2403005d 	li	v1,93
8000099c:	3c029000 	lui	v0,0x9000
800009a0:	a0430000 	sb	v1,0(v0)
800009a4:	1000ff5f 	b	80000724 <printk+0x12c>
800009a8:	81630002 	lb	v1,2(t3)
800009ac:	8fa20054 	lw	v0,84(sp)
800009b0:	8c450000 	lw	a1,0(v0)
800009b4:	24420004 	addiu	v0,v0,4
800009b8:	afa20054 	sw	v0,84(sp)
800009bc:	80a20000 	lb	v0,0(a1)
800009c0:	5040ff59 	beqzl	v0,80000728 <printk+0x130>
800009c4:	24020061 	li	v0,97
800009c8:	3c039000 	lui	v1,0x9000
800009cc:	a0620000 	sb	v0,0(v1)
800009d0:	80a20001 	lb	v0,1(a1)
800009d4:	1440fffd 	bnez	v0,800009cc <printk+0x3d4>
800009d8:	24a50001 	addiu	a1,a1,1
800009dc:	81630001 	lb	v1,1(t3)
800009e0:	24020075 	li	v0,117
800009e4:	1462ff3a 	bne	v1,v0,800006d0 <printk+0xd8>
800009e8:	24020078 	li	v0,120
800009ec:	8fa20054 	lw	v0,84(sp)
800009f0:	25a51fa8 	addiu	a1,t5,8104
800009f4:	8ca60004 	lw	a2,4(a1)
800009f8:	8da71fa8 	lw	a3,8104(t5)
800009fc:	94a50008 	lhu	a1,8(a1)
80000a00:	8c490000 	lw	t1,0(v0)
80000a04:	3c12cccc 	lui	s2,0xcccc
80000a08:	24420004 	addiu	v0,v0,4
80000a0c:	afa70044 	sw	a3,68(sp)
80000a10:	afa60048 	sw	a2,72(sp)
80000a14:	afa20054 	sw	v0,84(sp)
80000a18:	a7a5004c 	sh	a1,76(sp)
80000a1c:	a3a00041 	sb	zero,65(sp)
80000a20:	27a60041 	addiu	a2,sp,65
80000a24:	27a70010 	addiu	a3,sp,16
80000a28:	3652cccd 	ori	s2,s2,0xcccd
80000a2c:	01320019 	multu	t1,s2
80000a30:	00002810 	mfhi	a1
80000a34:	24c6ffff 	addiu	a2,a2,-1
80000a38:	2d2a000a 	sltiu	t2,t1,10
80000a3c:	000528c2 	srl	a1,a1,0x3
80000a40:	00051080 	sll	v0,a1,0x2
80000a44:	00451021 	addu	v0,v0,a1
80000a48:	00021040 	sll	v0,v0,0x1
80000a4c:	01221023 	subu	v0,t1,v0
80000a50:	00e21021 	addu	v0,a3,v0
80000a54:	80480034 	lb	t0,52(v0)
80000a58:	00a04825 	move	t1,a1
80000a5c:	1140fff3 	beqz	t2,80000a2c <printk+0x434>
80000a60:	a0c80000 	sb	t0,0(a2)
80000a64:	1100ff1f 	beqz	t0,800006e4 <printk+0xec>
80000a68:	3c029000 	lui	v0,0x9000
80000a6c:	a0480000 	sb	t0,0(v0)
80000a70:	80c80001 	lb	t0,1(a2)
80000a74:	1500fffd 	bnez	t0,80000a6c <printk+0x474>
80000a78:	24c60001 	addiu	a2,a2,1
80000a7c:	81630001 	lb	v1,1(t3)
80000a80:	24020078 	li	v0,120
80000a84:	1462ff15 	bne	v1,v0,800006dc <printk+0xe4>
80000a88:	24020058 	li	v0,88
80000a8c:	8fa20054 	lw	v0,84(sp)
80000a90:	25851f94 	addiu	a1,t4,8084
80000a94:	8ca70008 	lw	a3,8(a1)
80000a98:	8ca80004 	lw	t0,4(a1)
80000a9c:	8d891f94 	lw	t1,8084(t4)
80000aa0:	8ca5000c 	lw	a1,12(a1)
80000aa4:	8c460000 	lw	a2,0(v0)
80000aa8:	24420004 	addiu	v0,v0,4
80000aac:	afa20054 	sw	v0,84(sp)
80000ab0:	afa7004c 	sw	a3,76(sp)
80000ab4:	afa90044 	sw	t1,68(sp)
80000ab8:	afa80048 	sw	t0,72(sp)
80000abc:	afa50050 	sw	a1,80(sp)
80000ac0:	a3a00041 	sb	zero,65(sp)
80000ac4:	27a20041 	addiu	v0,sp,65
80000ac8:	27a70010 	addiu	a3,sp,16
80000acc:	30c5000f 	andi	a1,a2,0xf
80000ad0:	00e52821 	addu	a1,a3,a1
80000ad4:	80a50034 	lb	a1,52(a1)
80000ad8:	2cc80010 	sltiu	t0,a2,16
80000adc:	2442ffff 	addiu	v0,v0,-1
80000ae0:	00063102 	srl	a2,a2,0x4
80000ae4:	1100fff9 	beqz	t0,80000acc <printk+0x4d4>
80000ae8:	a0450000 	sb	a1,0(v0)
80000aec:	10a0ff0d 	beqz	a1,80000724 <printk+0x12c>
80000af0:	3c069000 	lui	a2,0x9000
80000af4:	a0c50000 	sb	a1,0(a2)
80000af8:	80450001 	lb	a1,1(v0)
80000afc:	14a0fffd 	bnez	a1,80000af4 <printk+0x4fc>
80000b00:	24420001 	addiu	v0,v0,1
80000b04:	81630001 	lb	v1,1(t3)
80000b08:	24020058 	li	v0,88
80000b0c:	1462fef6 	bne	v1,v0,800006e8 <printk+0xf0>
80000b10:	24020064 	li	v0,100
80000b14:	8fa20054 	lw	v0,84(sp)
80000b18:	25e51fb4 	addiu	a1,t7,8116
80000b1c:	8ca70008 	lw	a3,8(a1)
80000b20:	8ca80004 	lw	t0,4(a1)
80000b24:	8ca5000c 	lw	a1,12(a1)
80000b28:	8c460000 	lw	a2,0(v0)
80000b2c:	24420004 	addiu	v0,v0,4
80000b30:	afa20054 	sw	v0,84(sp)
80000b34:	afa7004c 	sw	a3,76(sp)
80000b38:	afb90044 	sw	t9,68(sp)
80000b3c:	afa80048 	sw	t0,72(sp)
80000b40:	afa50050 	sw	a1,80(sp)
80000b44:	a3a00041 	sb	zero,65(sp)
80000b48:	27a20041 	addiu	v0,sp,65
80000b4c:	27a70010 	addiu	a3,sp,16
80000b50:	30c5000f 	andi	a1,a2,0xf
80000b54:	00e52821 	addu	a1,a3,a1
80000b58:	80a50034 	lb	a1,52(a1)
80000b5c:	2cc80010 	sltiu	t0,a2,16
80000b60:	2442ffff 	addiu	v0,v0,-1
80000b64:	00063102 	srl	a2,a2,0x4
80000b68:	1100fff9 	beqz	t0,80000b50 <printk+0x558>
80000b6c:	a0450000 	sb	a1,0(v0)
80000b70:	10a0fee9 	beqz	a1,80000718 <printk+0x120>
80000b74:	3c069000 	lui	a2,0x9000
80000b78:	a0c50000 	sb	a1,0(a2)
80000b7c:	80450001 	lb	a1,1(v0)
80000b80:	14a0fffd 	bnez	a1,80000b78 <printk+0x580>
80000b84:	24420001 	addiu	v0,v0,1
80000b88:	81630001 	lb	v1,1(t3)
80000b8c:	24020064 	li	v0,100
80000b90:	1462fed8 	bne	v1,v0,800006f4 <printk+0xfc>
80000b94:	24020063 	li	v0,99
80000b98:	8fa30054 	lw	v1,84(sp)
80000b9c:	8c620000 	lw	v0,0(v1)
80000ba0:	24630004 	addiu	v1,v1,4
80000ba4:	04410005 	bgez	v0,80000bbc <printk+0x5c4>
80000ba8:	afa30054 	sw	v1,84(sp)
80000bac:	3c039000 	lui	v1,0x9000
80000bb0:	2405002d 	li	a1,45
80000bb4:	a0650000 	sb	a1,0(v1)
80000bb8:	00021023 	negu	v0,v0
80000bbc:	25a31fa8 	addiu	v1,t5,8104
80000bc0:	8c650004 	lw	a1,4(v1)
80000bc4:	94630008 	lhu	v1,8(v1)
80000bc8:	3c09cccc 	lui	t1,0xcccc
80000bcc:	afb00044 	sw	s0,68(sp)
80000bd0:	afa50048 	sw	a1,72(sp)
80000bd4:	a7a3004c 	sh	v1,76(sp)
80000bd8:	a3a00041 	sb	zero,65(sp)
80000bdc:	27a60041 	addiu	a2,sp,65
80000be0:	27a70010 	addiu	a3,sp,16
80000be4:	3529cccd 	ori	t1,t1,0xcccd
80000be8:	00490019 	multu	v0,t1
80000bec:	00001810 	mfhi	v1
80000bf0:	2c48000a 	sltiu	t0,v0,10
80000bf4:	24c6ffff 	addiu	a2,a2,-1
80000bf8:	000318c2 	srl	v1,v1,0x3
80000bfc:	00032880 	sll	a1,v1,0x2
80000c00:	00a32821 	addu	a1,a1,v1
80000c04:	00052840 	sll	a1,a1,0x1
80000c08:	00451023 	subu	v0,v0,a1
80000c0c:	00e21021 	addu	v0,a3,v0
80000c10:	80450034 	lb	a1,52(v0)
80000c14:	00601025 	move	v0,v1
80000c18:	1100fff3 	beqz	t0,80000be8 <printk+0x5f0>
80000c1c:	a0c50000 	sb	a1,0(a2)
80000c20:	10a00005 	beqz	a1,80000c38 <printk+0x640>
80000c24:	3c029000 	lui	v0,0x9000
80000c28:	a0450000 	sb	a1,0(v0)
80000c2c:	80c50001 	lb	a1,1(a2)
80000c30:	14a0fffd 	bnez	a1,80000c28 <printk+0x630>
80000c34:	24c60001 	addiu	a2,a2,1
80000c38:	1000fead 	b	800006f0 <printk+0xf8>
80000c3c:	81630001 	lb	v1,1(t3)
80000c40:	26231f8c 	addiu	v1,s1,8076
80000c44:	2402005b 	li	v0,91
80000c48:	3c059000 	lui	a1,0x9000
80000c4c:	a0a20000 	sb	v0,0(a1)
80000c50:	80620001 	lb	v0,1(v1)
80000c54:	1440fffd 	bnez	v0,80000c4c <printk+0x654>
80000c58:	24630001 	addiu	v1,v1,1
80000c5c:	1000feb1 	b	80000724 <printk+0x12c>
80000c60:	81630002 	lb	v1,2(t3)
80000c64:	5248ff2f 	beql	s2,t0,80000924 <printk+0x32c>
80000c68:	8d290004 	lw	t1,4(t1)
80000c6c:	1000ff2b 	b	8000091c <printk+0x324>
80000c70:	00000000 	nop

80000c74 <print_string>:
80000c74:	80820000 	lb	v0,0(a0)
80000c78:	10400006 	beqz	v0,80000c94 <print_string+0x20>
80000c7c:	00000000 	nop
80000c80:	3c039000 	lui	v1,0x9000
80000c84:	a0620000 	sb	v0,0(v1)
80000c88:	80820001 	lb	v0,1(a0)
80000c8c:	1440fffd 	bnez	v0,80000c84 <print_string+0x10>
80000c90:	24840001 	addiu	a0,a0,1
80000c94:	03e00008 	jr	ra
80000c98:	00000000 	nop

80000c9c <puts>:
80000c9c:	80820000 	lb	v0,0(a0)
80000ca0:	10400005 	beqz	v0,80000cb8 <puts+0x1c>
80000ca4:	3c039000 	lui	v1,0x9000
80000ca8:	a0620000 	sb	v0,0(v1)
80000cac:	80820001 	lb	v0,1(a0)
80000cb0:	1440fffd 	bnez	v0,80000ca8 <puts+0xc>
80000cb4:	24840001 	addiu	a0,a0,1
80000cb8:	3c029000 	lui	v0,0x9000
80000cbc:	2403000a 	li	v1,10
80000cc0:	a0430000 	sb	v1,0(v0)
80000cc4:	03e00008 	jr	ra
80000cc8:	00000000 	nop
80000ccc:	00000000 	nop

80000cd0 <ull_div_and_mod.part.0>:
80000cd0:	8faf0010 	lw	t7,16(sp)
80000cd4:	240b0040 	li	t3,64
80000cd8:	00001825 	move	v1,zero
80000cdc:	00004825 	move	t1,zero
80000ce0:	00001025 	move	v0,zero
80000ce4:	00006025 	move	t4,zero
80000ce8:	000357c2 	srl	t2,v1,0x1f
80000cec:	00094040 	sll	t0,t1,0x1
80000cf0:	01484025 	or	t0,t2,t0
80000cf4:	00026fc2 	srl	t5,v0,0x1f
80000cf8:	000c5040 	sll	t2,t4,0x1
80000cfc:	01aa5025 	or	t2,t5,t2
80000d00:	000567c2 	srl	t4,a1,0x1f
80000d04:	00031840 	sll	v1,v1,0x1
80000d08:	0107702b 	sltu	t6,t0,a3
80000d0c:	006c1825 	or	v1,v1,t4
80000d10:	01004825 	move	t1,t0
80000d14:	00046fc2 	srl	t5,a0,0x1f
80000d18:	00052840 	sll	a1,a1,0x1
80000d1c:	256bffff 	addiu	t3,t3,-1
80000d20:	00021040 	sll	v0,v0,0x1
80000d24:	15c0000b 	bnez	t6,80000d54 <ull_div_and_mod.part.0+0x84>
80000d28:	01406025 	move	t4,t2
80000d2c:	00667023 	subu	t6,v1,a2
80000d30:	006ec02b 	sltu	t8,v1,t6
80000d34:	01074023 	subu	t0,t0,a3
80000d38:	14e90003 	bne	a3,t1,80000d48 <ull_div_and_mod.part.0+0x78>
80000d3c:	0066c82b 	sltu	t9,v1,a2
80000d40:	57200005 	bnezl	t9,80000d58 <ull_div_and_mod.part.0+0x88>
80000d44:	00042040 	sll	a0,a0,0x1
80000d48:	01c01825 	move	v1,t6
80000d4c:	01184823 	subu	t1,t0,t8
80000d50:	34420001 	ori	v0,v0,0x1
80000d54:	00042040 	sll	a0,a0,0x1
80000d58:	1560ffe3 	bnez	t3,80000ce8 <ull_div_and_mod.part.0+0x18>
80000d5c:	01a52825 	or	a1,t5,a1
80000d60:	ade30000 	sw	v1,0(t7)
80000d64:	ade90004 	sw	t1,4(t7)
80000d68:	03e00008 	jr	ra
80000d6c:	01401825 	move	v1,t2

80000d70 <__udivdi3>:
80000d70:	00c71025 	or	v0,a2,a3
80000d74:	10400015 	beqz	v0,80000dcc <__udivdi3+0x5c>
80000d78:	00c01025 	move	v0,a2
80000d7c:	00a7102b 	sltu	v0,a1,a3
80000d80:	5440000f 	bnezl	v0,80000dc0 <__udivdi3+0x50>
80000d84:	00003825 	move	a3,zero
80000d88:	10e5000a 	beq	a3,a1,80000db4 <__udivdi3+0x44>
80000d8c:	0086102b 	sltu	v0,a0,a2
80000d90:	27bdffd8 	addiu	sp,sp,-40
80000d94:	27a20018 	addiu	v0,sp,24
80000d98:	afa20010 	sw	v0,16(sp)
80000d9c:	afbf0024 	sw	ra,36(sp)
80000da0:	0c000334 	jal	80000cd0 <ull_div_and_mod.part.0>
80000da4:	00000000 	nop
80000da8:	8fbf0024 	lw	ra,36(sp)
80000dac:	03e00008 	jr	ra
80000db0:	27bd0028 	addiu	sp,sp,40
80000db4:	1040fff6 	beqz	v0,80000d90 <__udivdi3+0x20>
80000db8:	00000000 	nop
80000dbc:	00003825 	move	a3,zero
80000dc0:	00001025 	move	v0,zero
80000dc4:	03e00008 	jr	ra
80000dc8:	00e01825 	move	v1,a3
80000dcc:	03e00008 	jr	ra
80000dd0:	00e01825 	move	v1,a3

80000dd4 <__umoddi3>:
80000dd4:	00c71025 	or	v0,a2,a3
80000dd8:	10400018 	beqz	v0,80000e3c <__umoddi3+0x68>
80000ddc:	00c01025 	move	v0,a2
80000de0:	00a7102b 	sltu	v0,a1,a3
80000de4:	54400012 	bnezl	v0,80000e30 <__umoddi3+0x5c>
80000de8:	00a03825 	move	a3,a1
80000dec:	10e5000d 	beq	a3,a1,80000e24 <__umoddi3+0x50>
80000df0:	0086102b 	sltu	v0,a0,a2
80000df4:	27bdffd8 	addiu	sp,sp,-40
80000df8:	27a20018 	addiu	v0,sp,24
80000dfc:	afa20010 	sw	v0,16(sp)
80000e00:	afbf0024 	sw	ra,36(sp)
80000e04:	0c000334 	jal	80000cd0 <ull_div_and_mod.part.0>
80000e08:	00000000 	nop
80000e0c:	8fa7001c 	lw	a3,28(sp)
80000e10:	8fbf0024 	lw	ra,36(sp)
80000e14:	8fa20018 	lw	v0,24(sp)
80000e18:	00e01825 	move	v1,a3
80000e1c:	03e00008 	jr	ra
80000e20:	27bd0028 	addiu	sp,sp,40
80000e24:	1040fff3 	beqz	v0,80000df4 <__umoddi3+0x20>
80000e28:	00000000 	nop
80000e2c:	00a03825 	move	a3,a1
80000e30:	00801025 	move	v0,a0
80000e34:	03e00008 	jr	ra
80000e38:	00e01825 	move	v1,a3
80000e3c:	03e00008 	jr	ra
80000e40:	00e01825 	move	v1,a3

80000e44 <__divdi3>:
80000e44:	27bdffd0 	addiu	sp,sp,-48
80000e48:	00c01025 	move	v0,a2
80000e4c:	afb10028 	sw	s1,40(sp)
80000e50:	afb00024 	sw	s0,36(sp)
80000e54:	afbf002c 	sw	ra,44(sp)
80000e58:	00a08825 	move	s1,a1
80000e5c:	04a10005 	bgez	a1,80000e74 <__divdi3+0x30>
80000e60:	00e08025 	move	s0,a3
80000e64:	0004282b 	sltu	a1,zero,a0
80000e68:	00111823 	negu	v1,s1
80000e6c:	00042023 	negu	a0,a0
80000e70:	00652823 	subu	a1,v1,a1
80000e74:	06000009 	bltz	s0,80000e9c <__divdi3+0x58>
80000e78:	00501825 	or	v1,v0,s0
80000e7c:	00403025 	move	a2,v0
80000e80:	1460000a 	bnez	v1,80000eac <__divdi3+0x68>
80000e84:	02003825 	move	a3,s0
80000e88:	06210019 	bgez	s1,80000ef0 <__divdi3+0xac>
80000e8c:	8fbf002c 	lw	ra,44(sp)
80000e90:	00001025 	move	v0,zero
80000e94:	10000011 	b	80000edc <__divdi3+0x98>
80000e98:	00003825 	move	a3,zero
80000e9c:	0002182b 	sltu	v1,zero,v0
80000ea0:	00103823 	negu	a3,s0
80000ea4:	00023023 	negu	a2,v0
80000ea8:	00e33823 	subu	a3,a3,v1
80000eac:	00a7102b 	sltu	v0,a1,a3
80000eb0:	14400017 	bnez	v0,80000f10 <__divdi3+0xcc>
80000eb4:	00001025 	move	v0,zero
80000eb8:	10e50012 	beq	a3,a1,80000f04 <__divdi3+0xc0>
80000ebc:	0086102b 	sltu	v0,a0,a2
80000ec0:	27a20018 	addiu	v0,sp,24
80000ec4:	0c000334 	jal	80000cd0 <ull_div_and_mod.part.0>
80000ec8:	afa20010 	sw	v0,16(sp)
80000ecc:	06200012 	bltz	s1,80000f18 <__divdi3+0xd4>
80000ed0:	00603825 	move	a3,v1
80000ed4:	06010006 	bgez	s0,80000ef0 <__divdi3+0xac>
80000ed8:	8fbf002c 	lw	ra,44(sp)
80000edc:	0002182b 	sltu	v1,zero,v0
80000ee0:	00073823 	negu	a3,a3
80000ee4:	00021023 	negu	v0,v0
80000ee8:	00e33823 	subu	a3,a3,v1
80000eec:	8fbf002c 	lw	ra,44(sp)
80000ef0:	8fb10028 	lw	s1,40(sp)
80000ef4:	8fb00024 	lw	s0,36(sp)
80000ef8:	00e01825 	move	v1,a3
80000efc:	03e00008 	jr	ra
80000f00:	27bd0030 	addiu	sp,sp,48
80000f04:	1040ffef 	beqz	v0,80000ec4 <__divdi3+0x80>
80000f08:	27a20018 	addiu	v0,sp,24
80000f0c:	00001025 	move	v0,zero
80000f10:	0621fff0 	bgez	s1,80000ed4 <__divdi3+0x90>
80000f14:	00003825 	move	a3,zero
80000f18:	0601fff0 	bgez	s0,80000edc <__divdi3+0x98>
80000f1c:	8fbf002c 	lw	ra,44(sp)
80000f20:	8fb10028 	lw	s1,40(sp)
80000f24:	8fb00024 	lw	s0,36(sp)
80000f28:	00e01825 	move	v1,a3
80000f2c:	03e00008 	jr	ra
80000f30:	27bd0030 	addiu	sp,sp,48

80000f34 <__moddi3>:
80000f34:	27bdffd8 	addiu	sp,sp,-40
80000f38:	afb00020 	sw	s0,32(sp)
80000f3c:	afbf0024 	sw	ra,36(sp)
80000f40:	04a10005 	bgez	a1,80000f58 <__moddi3+0x24>
80000f44:	00a08025 	move	s0,a1
80000f48:	0004282b 	sltu	a1,zero,a0
80000f4c:	00101023 	negu	v0,s0
80000f50:	00042023 	negu	a0,a0
80000f54:	00452823 	subu	a1,v0,a1
80000f58:	04e00010 	bltz	a3,80000f9c <__moddi3+0x68>
80000f5c:	00c71025 	or	v0,a2,a3
80000f60:	54400013 	bnezl	v0,80000fb0 <__moddi3+0x7c>
80000f64:	00a7102b 	sltu	v0,a1,a3
80000f68:	00002025 	move	a0,zero
80000f6c:	00002825 	move	a1,zero
80000f70:	06010005 	bgez	s0,80000f88 <__moddi3+0x54>
80000f74:	00801025 	move	v0,a0
80000f78:	0004182b 	sltu	v1,zero,a0
80000f7c:	00052823 	negu	a1,a1
80000f80:	00041023 	negu	v0,a0
80000f84:	00a32823 	subu	a1,a1,v1
80000f88:	8fbf0024 	lw	ra,36(sp)
80000f8c:	8fb00020 	lw	s0,32(sp)
80000f90:	00a01825 	move	v1,a1
80000f94:	03e00008 	jr	ra
80000f98:	27bd0028 	addiu	sp,sp,40
80000f9c:	0006102b 	sltu	v0,zero,a2
80000fa0:	00073823 	negu	a3,a3
80000fa4:	00063023 	negu	a2,a2
80000fa8:	00e23823 	subu	a3,a3,v0
80000fac:	00a7102b 	sltu	v0,a1,a3
80000fb0:	1440ffef 	bnez	v0,80000f70 <__moddi3+0x3c>
80000fb4:	00000000 	nop
80000fb8:	50e50007 	beql	a3,a1,80000fd8 <__moddi3+0xa4>
80000fbc:	0086102b 	sltu	v0,a0,a2
80000fc0:	27a20018 	addiu	v0,sp,24
80000fc4:	0c000334 	jal	80000cd0 <ull_div_and_mod.part.0>
80000fc8:	afa20010 	sw	v0,16(sp)
80000fcc:	8fa40018 	lw	a0,24(sp)
80000fd0:	1000ffe7 	b	80000f70 <__moddi3+0x3c>
80000fd4:	8fa5001c 	lw	a1,28(sp)
80000fd8:	5040fffa 	beqzl	v0,80000fc4 <__moddi3+0x90>
80000fdc:	27a20018 	addiu	v0,sp,24
80000fe0:	1000ffe3 	b	80000f70 <__moddi3+0x3c>
80000fe4:	00000000 	nop
	...

80000ff0 <heap_init>:
80000ff0:	27bdffe0 	addiu	sp,sp,-32
80000ff4:	afb00014 	sw	s0,20(sp)
80000ff8:	3c108000 	lui	s0,0x8000
80000ffc:	afbf001c 	sw	ra,28(sp)
80001000:	afb10018 	sw	s1,24(sp)
80001004:	0c000138 	jal	800004e0 <debug_get_base_memory_size>
80001008:	26106960 	addiu	s0,s0,26976
8000100c:	3c048000 	lui	a0,0x8000
80001010:	00402825 	move	a1,v0
80001014:	3c118000 	lui	s1,0x8000
80001018:	02003025 	move	a2,s0
8000101c:	24841fc8 	addiu	a0,a0,8136
80001020:	0c00017e 	jal	800005f8 <printk>
80001024:	ae222ad4 	sw	v0,10964(s1)
80001028:	8e252ad4 	lw	a1,10964(s1)
8000102c:	3c048000 	lui	a0,0x8000
80001030:	24841fec 	addiu	a0,a0,8172
80001034:	0c00017e 	jal	800005f8 <printk>
80001038:	02052821 	addu	a1,s0,a1
8000103c:	3c038000 	lui	v1,0x8000
80001040:	8e242ad4 	lw	a0,10964(s1)
80001044:	8fbf001c 	lw	ra,28(sp)
80001048:	24622ad8 	addiu	v0,v1,10968
8000104c:	ac602ad8 	sw	zero,10968(v1)
80001050:	24030001 	li	v1,1
80001054:	ac500004 	sw	s0,4(v0)
80001058:	ac433e80 	sw	v1,16000(v0)
8000105c:	3c028000 	lui	v0,0x8000
80001060:	8fb10018 	lw	s1,24(sp)
80001064:	8fb00014 	lw	s0,20(sp)
80001068:	ac442ad0 	sw	a0,10960(v0)
8000106c:	03e00008 	jr	ra
80001070:	27bd0020 	addiu	sp,sp,32

80001074 <push_first>:
80001074:	3c098000 	lui	t1,0x8000
80001078:	25272ad8 	addiu	a3,t1,10968
8000107c:	8ce83e80 	lw	t0,16000(a3)
80001080:	2d020002 	sltiu	v0,t0,2
80001084:	5440000b 	bnezl	v0,800010b4 <push_first+0x40>
80001088:	8ce20004 	lw	v0,4(a3)
8000108c:	000810c0 	sll	v0,t0,0x3
80001090:	00e21021 	addu	v0,a3,v0
80001094:	24e60008 	addiu	a2,a3,8
80001098:	8c45fff8 	lw	a1,-8(v0)
8000109c:	8c43fffc 	lw	v1,-4(v0)
800010a0:	2442fff8 	addiu	v0,v0,-8
800010a4:	ac450008 	sw	a1,8(v0)
800010a8:	1446fffb 	bne	v0,a2,80001098 <push_first+0x24>
800010ac:	ac43000c 	sw	v1,12(v0)
800010b0:	8ce20004 	lw	v0,4(a3)
800010b4:	8d232ad8 	lw	v1,10968(t1)
800010b8:	25080001 	addiu	t0,t0,1
800010bc:	ace40008 	sw	a0,8(a3)
800010c0:	00431021 	addu	v0,v0,v1
800010c4:	ace2000c 	sw	v0,12(a3)
800010c8:	03e00008 	jr	ra
800010cc:	ace83e80 	sw	t0,16000(a3)

800010d0 <push_back>:
800010d0:	27bdffd0 	addiu	sp,sp,-48
800010d4:	afb20020 	sw	s2,32(sp)
800010d8:	3c128000 	lui	s2,0x8000
800010dc:	26522ad8 	addiu	s2,s2,10968
800010e0:	8e4b3e80 	lw	t3,16000(s2)
800010e4:	afb40028 	sw	s4,40(sp)
800010e8:	afb1001c 	sw	s1,28(sp)
800010ec:	2565ffff 	addiu	a1,t3,-1
800010f0:	2ca20002 	sltiu	v0,a1,2
800010f4:	afb00018 	sw	s0,24(sp)
800010f8:	afbf002c 	sw	ra,44(sp)
800010fc:	afb30024 	sw	s3,36(sp)
80001100:	00808825 	move	s1,a0
80001104:	25740001 	addiu	s4,t3,1
80001108:	14400042 	bnez	v0,80001214 <push_back+0x144>
8000110c:	01608025 	move	s0,t3
80001110:	3c138000 	lui	s3,0x8000
80001114:	8e47000c 	lw	a3,12(s2)
80001118:	26732ae0 	addiu	s3,s3,10976
8000111c:	3c09000f 	lui	t1,0xf
80001120:	02603025 	move	a2,s3
80001124:	24030001 	li	v1,1
80001128:	25294240 	addiu	t1,t1,16960
8000112c:	00e01025 	move	v0,a3
80001130:	8cc7000c 	lw	a3,12(a2)
80001134:	8cc80000 	lw	t0,0(a2)
80001138:	02221021 	addu	v0,s1,v0
8000113c:	00e21023 	subu	v0,a3,v0
80001140:	00481023 	subu	v0,v0,t0
80001144:	0049402b 	sltu	t0,v0,t1
80001148:	00605025 	move	t2,v1
8000114c:	11000003 	beqz	t0,8000115c <push_back+0x8c>
80001150:	24630001 	addiu	v1,v1,1
80001154:	00404825 	move	t1,v0
80001158:	01408025 	move	s0,t2
8000115c:	1465fff3 	bne	v1,a1,8000112c <push_back+0x5c>
80001160:	24c60008 	addiu	a2,a2,8
80001164:	120b002a 	beq	s0,t3,80001210 <push_back+0x140>
80001168:	26140001 	addiu	s4,s0,1
8000116c:	3c048000 	lui	a0,0x8000
80001170:	02002825 	move	a1,s0
80001174:	0c00017e 	jal	800005f8 <printk>
80001178:	24842014 	addiu	a0,a0,8212
8000117c:	8e463e80 	lw	a2,16000(s2)
80001180:	0286102b 	sltu	v0,s4,a2
80001184:	1040003b 	beqz	v0,80001274 <push_back+0x1a4>
80001188:	000610c0 	sll	v0,a2,0x3
8000118c:	001080c0 	sll	s0,s0,0x3
80001190:	02421021 	addu	v0,s2,v0
80001194:	02709821 	addu	s3,s3,s0
80001198:	8c44fff8 	lw	a0,-8(v0)
8000119c:	8c43fffc 	lw	v1,-4(v0)
800011a0:	2442fff8 	addiu	v0,v0,-8
800011a4:	ac440008 	sw	a0,8(v0)
800011a8:	1662fffb 	bne	s3,v0,80001198 <push_back+0xc8>
800011ac:	ac43000c 	sw	v1,12(v0)
800011b0:	02508021 	addu	s0,s2,s0
800011b4:	8e050000 	lw	a1,0(s0)
800011b8:	8e020004 	lw	v0,4(s0)
800011bc:	001418c0 	sll	v1,s4,0x3
800011c0:	02431821 	addu	v1,s2,v1
800011c4:	00451021 	addu	v0,v0,a1
800011c8:	3c048000 	lui	a0,0x8000
800011cc:	24c60001 	addiu	a2,a2,1
800011d0:	00402825 	move	a1,v0
800011d4:	ac710000 	sw	s1,0(v1)
800011d8:	ac620004 	sw	v0,4(v1)
800011dc:	24842028 	addiu	a0,a0,8232
800011e0:	afa20010 	sw	v0,16(sp)
800011e4:	0c00017e 	jal	800005f8 <printk>
800011e8:	ae463e80 	sw	a2,16000(s2)
800011ec:	8fbf002c 	lw	ra,44(sp)
800011f0:	8fa20010 	lw	v0,16(sp)
800011f4:	8fb40028 	lw	s4,40(sp)
800011f8:	8fb30024 	lw	s3,36(sp)
800011fc:	8fb20020 	lw	s2,32(sp)
80001200:	8fb1001c 	lw	s1,28(sp)
80001204:	8fb00018 	lw	s0,24(sp)
80001208:	03e00008 	jr	ra
8000120c:	27bd0030 	addiu	sp,sp,48
80001210:	2605ffff 	addiu	a1,s0,-1
80001214:	000528c0 	sll	a1,a1,0x3
80001218:	02452821 	addu	a1,s2,a1
8000121c:	8ca20004 	lw	v0,4(a1)
80001220:	8ca50000 	lw	a1,0(a1)
80001224:	001080c0 	sll	s0,s0,0x3
80001228:	02508021 	addu	s0,s2,s0
8000122c:	00451021 	addu	v0,v0,a1
80001230:	3c048000 	lui	a0,0x8000
80001234:	ae110000 	sw	s1,0(s0)
80001238:	ae020004 	sw	v0,4(s0)
8000123c:	00402825 	move	a1,v0
80001240:	24841ffc 	addiu	a0,a0,8188
80001244:	afa20010 	sw	v0,16(sp)
80001248:	0c00017e 	jal	800005f8 <printk>
8000124c:	ae543e80 	sw	s4,16000(s2)
80001250:	8fbf002c 	lw	ra,44(sp)
80001254:	8fa20010 	lw	v0,16(sp)
80001258:	8fb40028 	lw	s4,40(sp)
8000125c:	8fb30024 	lw	s3,36(sp)
80001260:	8fb20020 	lw	s2,32(sp)
80001264:	8fb1001c 	lw	s1,28(sp)
80001268:	8fb00018 	lw	s0,24(sp)
8000126c:	03e00008 	jr	ra
80001270:	27bd0030 	addiu	sp,sp,48
80001274:	1000ffce 	b	800011b0 <push_back+0xe0>
80001278:	001080c0 	sll	s0,s0,0x3

8000127c <delete_chunk>:
8000127c:	3c088000 	lui	t0,0x8000
80001280:	25082ad8 	addiu	t0,t0,10968
80001284:	8d063e80 	lw	a2,16000(t0)
80001288:	2cc20002 	sltiu	v0,a2,2
8000128c:	1440001a 	bnez	v0,800012f8 <delete_chunk+0x7c>
80001290:	24050001 	li	a1,1
80001294:	3c028000 	lui	v0,0x8000
80001298:	10000004 	b	800012ac <delete_chunk+0x30>
8000129c:	24422ae4 	addiu	v0,v0,10980
800012a0:	24a50001 	addiu	a1,a1,1
800012a4:	10a60014 	beq	a1,a2,800012f8 <delete_chunk+0x7c>
800012a8:	00000000 	nop
800012ac:	8c430000 	lw	v1,0(v0)
800012b0:	1464fffb 	bne	v1,a0,800012a0 <delete_chunk+0x24>
800012b4:	24420008 	addiu	v0,v0,8
800012b8:	000518c0 	sll	v1,a1,0x3
800012bc:	01031821 	addu	v1,t0,v1
800012c0:	000638c0 	sll	a3,a2,0x3
800012c4:	00a6282b 	sltu	a1,a1,a2
800012c8:	8c620000 	lw	v0,0(v1)
800012cc:	10a00007 	beqz	a1,800012ec <delete_chunk+0x70>
800012d0:	01073821 	addu	a3,t0,a3
800012d4:	8c650008 	lw	a1,8(v1)
800012d8:	8c64000c 	lw	a0,12(v1)
800012dc:	24630008 	addiu	v1,v1,8
800012e0:	ac65fff8 	sw	a1,-8(v1)
800012e4:	14e3fffb 	bne	a3,v1,800012d4 <delete_chunk+0x58>
800012e8:	ac64fffc 	sw	a0,-4(v1)
800012ec:	24c6ffff 	addiu	a2,a2,-1
800012f0:	03e00008 	jr	ra
800012f4:	ad063e80 	sw	a2,16000(t0)
800012f8:	03e00008 	jr	ra
800012fc:	00001025 	move	v0,zero

80001300 <kfree>:
80001300:	27bdffe8 	addiu	sp,sp,-24
80001304:	afbf0014 	sw	ra,20(sp)
80001308:	0c00049f 	jal	8000127c <delete_chunk>
8000130c:	00000000 	nop
80001310:	3c048000 	lui	a0,0x8000
80001314:	8c832ad4 	lw	v1,10964(a0)
80001318:	8fbf0014 	lw	ra,20(sp)
8000131c:	27bd0018 	addiu	sp,sp,24
80001320:	00621821 	addu	v1,v1,v0
80001324:	03e00008 	jr	ra
80001328:	ac832ad4 	sw	v1,10964(a0)

8000132c <print_array>:
8000132c:	27bdffd8 	addiu	sp,sp,-40
80001330:	3c028000 	lui	v0,0x8000
80001334:	afb2001c 	sw	s2,28(sp)
80001338:	24522ad8 	addiu	s2,v0,10968
8000133c:	8c462ad8 	lw	a2,10968(v0)
80001340:	8e450004 	lw	a1,4(s2)
80001344:	3c048000 	lui	a0,0x8000
80001348:	24842040 	addiu	a0,a0,8256
8000134c:	afbf0024 	sw	ra,36(sp)
80001350:	afb30020 	sw	s3,32(sp)
80001354:	afb10018 	sw	s1,24(sp)
80001358:	0c00017e 	jal	800005f8 <printk>
8000135c:	afb00014 	sw	s0,20(sp)
80001360:	8e423e80 	lw	v0,16000(s2)
80001364:	2c420002 	sltiu	v0,v0,2
80001368:	1440000f 	bnez	v0,800013a8 <print_array+0x7c>
8000136c:	3c108000 	lui	s0,0x8000
80001370:	3c138000 	lui	s3,0x8000
80001374:	26102ae0 	addiu	s0,s0,10976
80001378:	24110001 	li	s1,1
8000137c:	26732060 	addiu	s3,s3,8288
80001380:	8e070000 	lw	a3,0(s0)
80001384:	8e060004 	lw	a2,4(s0)
80001388:	02202825 	move	a1,s1
8000138c:	0c00017e 	jal	800005f8 <printk>
80001390:	02602025 	move	a0,s3
80001394:	8e423e80 	lw	v0,16000(s2)
80001398:	26310001 	addiu	s1,s1,1
8000139c:	0222102b 	sltu	v0,s1,v0
800013a0:	1440fff7 	bnez	v0,80001380 <print_array+0x54>
800013a4:	26100008 	addiu	s0,s0,8
800013a8:	8fbf0024 	lw	ra,36(sp)
800013ac:	8fb30020 	lw	s3,32(sp)
800013b0:	8fb2001c 	lw	s2,28(sp)
800013b4:	8fb10018 	lw	s1,24(sp)
800013b8:	8fb00014 	lw	s0,20(sp)
800013bc:	03e00008 	jr	ra
800013c0:	27bd0028 	addiu	sp,sp,40

800013c4 <count_biggest_free_block>:
800013c4:	27bdffe0 	addiu	sp,sp,-32
800013c8:	3c02000f 	lui	v0,0xf
800013cc:	24424240 	addiu	v0,v0,16960
800013d0:	afb10014 	sw	s1,20(sp)
800013d4:	3c118000 	lui	s1,0x8000
800013d8:	afbf001c 	sw	ra,28(sp)
800013dc:	afb20018 	sw	s2,24(sp)
800013e0:	afb00010 	sw	s0,16(sp)
800013e4:	0c0004cb 	jal	8000132c <print_array>
800013e8:	ae22695c 	sw	v0,26972(s1)
800013ec:	3c038000 	lui	v1,0x8000
800013f0:	24632ad8 	addiu	v1,v1,10968
800013f4:	8c6c3e80 	lw	t4,16000(v1)
800013f8:	258cffff 	addiu	t4,t4,-1
800013fc:	11800031 	beqz	t4,800014c4 <count_biggest_free_block+0x100>
80001400:	8e2e695c 	lw	t6,26972(s1)
80001404:	8c680004 	lw	t0,4(v1)
80001408:	00006825 	move	t5,zero
8000140c:	01c02825 	move	a1,t6
80001410:	00002025 	move	a0,zero
80001414:	00008025 	move	s0,zero
80001418:	00003825 	move	a3,zero
8000141c:	01001025 	move	v0,t0
80001420:	8c68000c 	lw	t0,12(v1)
80001424:	8c6a0000 	lw	t2,0(v1)
80001428:	00803025 	move	a2,a0
8000142c:	01021023 	subu	v0,t0,v0
80001430:	004a4823 	subu	t1,v0,t2
80001434:	0209582b 	sltu	t3,s0,t1
80001438:	104a0006 	beq	v0,t2,80001454 <count_biggest_free_block+0x90>
8000143c:	24840001 	addiu	a0,a0,1
80001440:	11600004 	beqz	t3,80001454 <count_biggest_free_block+0x90>
80001444:	00e93821 	addu	a3,a3,t1
80001448:	00c02825 	move	a1,a2
8000144c:	01208025 	move	s0,t1
80001450:	240d0001 	li	t5,1
80001454:	148cfff1 	bne	a0,t4,8000141c <count_biggest_free_block+0x58>
80001458:	24630008 	addiu	v1,v1,8
8000145c:	51a00002 	beqzl	t5,80001468 <count_biggest_free_block+0xa4>
80001460:	01c02825 	move	a1,t6
80001464:	ae25695c 	sw	a1,26972(s1)
80001468:	3c128000 	lui	s2,0x8000
8000146c:	8e512ad4 	lw	s1,10964(s2)
80001470:	3c048000 	lui	a0,0x8000
80001474:	24842080 	addiu	a0,a0,8320
80001478:	0c00017e 	jal	800005f8 <printk>
8000147c:	02278823 	subu	s1,s1,a3
80001480:	8e452ad4 	lw	a1,10964(s2)
80001484:	3c048000 	lui	a0,0x8000
80001488:	02203825 	move	a3,s1
8000148c:	02003025 	move	a2,s0
80001490:	0c00017e 	jal	800005f8 <printk>
80001494:	2484209c 	addiu	a0,a0,8348
80001498:	0230102b 	sltu	v0,s1,s0
8000149c:	54400001 	bnezl	v0,800014a4 <count_biggest_free_block+0xe0>
800014a0:	02008825 	move	s1,s0
800014a4:	8fbf001c 	lw	ra,28(sp)
800014a8:	3c028000 	lui	v0,0x8000
800014ac:	8fb20018 	lw	s2,24(sp)
800014b0:	8fb00010 	lw	s0,16(sp)
800014b4:	ac512ad0 	sw	s1,10960(v0)
800014b8:	8fb10014 	lw	s1,20(sp)
800014bc:	03e00008 	jr	ra
800014c0:	27bd0020 	addiu	sp,sp,32
800014c4:	8e25695c 	lw	a1,26972(s1)
800014c8:	00008025 	move	s0,zero
800014cc:	1000ffe6 	b	80001468 <count_biggest_free_block+0xa4>
800014d0:	00003825 	move	a3,zero

800014d4 <kmalloc>:
800014d4:	27bdffe0 	addiu	sp,sp,-32
800014d8:	afb20018 	sw	s2,24(sp)
800014dc:	3c128000 	lui	s2,0x8000
800014e0:	afb10014 	sw	s1,20(sp)
800014e4:	26512ad8 	addiu	s1,s2,10968
800014e8:	8e233e80 	lw	v1,16000(s1)
800014ec:	240207d0 	li	v0,2000
800014f0:	afbf001c 	sw	ra,28(sp)
800014f4:	1062002e 	beq	v1,v0,800015b0 <kmalloc+0xdc>
800014f8:	afb00010 	sw	s0,16(sp)
800014fc:	00048023 	negu	s0,a0
80001500:	32100003 	andi	s0,s0,0x3
80001504:	0c0004f1 	jal	800013c4 <count_biggest_free_block>
80001508:	00908021 	addu	s0,a0,s0
8000150c:	3c028000 	lui	v0,0x8000
80001510:	8c422ad0 	lw	v0,10960(v0)
80001514:	0050102b 	sltu	v0,v0,s0
80001518:	14400025 	bnez	v0,800015b0 <kmalloc+0xdc>
8000151c:	3c028000 	lui	v0,0x8000
80001520:	8c452ad4 	lw	a1,10964(v0)
80001524:	3c048000 	lui	a0,0x8000
80001528:	02003825 	move	a3,s0
8000152c:	00b03023 	subu	a2,a1,s0
80001530:	248420d8 	addiu	a0,a0,8408
80001534:	0c00017e 	jal	800005f8 <printk>
80001538:	ac462ad4 	sw	a2,10964(v0)
8000153c:	3c028000 	lui	v0,0x8000
80001540:	8c42695c 	lw	v0,26972(v0)
80001544:	14400021 	bnez	v0,800015cc <kmalloc+0xf8>
80001548:	8fbf001c 	lw	ra,28(sp)
8000154c:	8e263e80 	lw	a2,16000(s1)
80001550:	2cc20002 	sltiu	v0,a2,2
80001554:	14400009 	bnez	v0,8000157c <kmalloc+0xa8>
80001558:	000610c0 	sll	v0,a2,0x3
8000155c:	02221021 	addu	v0,s1,v0
80001560:	26250008 	addiu	a1,s1,8
80001564:	8c44fff8 	lw	a0,-8(v0)
80001568:	8c43fffc 	lw	v1,-4(v0)
8000156c:	2442fff8 	addiu	v0,v0,-8
80001570:	ac440008 	sw	a0,8(v0)
80001574:	1445fffb 	bne	v0,a1,80001564 <kmalloc+0x90>
80001578:	ac43000c 	sw	v1,12(v0)
8000157c:	8e220004 	lw	v0,4(s1)
80001580:	8e432ad8 	lw	v1,10968(s2)
80001584:	8fbf001c 	lw	ra,28(sp)
80001588:	24c60001 	addiu	a2,a2,1
8000158c:	00431021 	addu	v0,v0,v1
80001590:	8fb20018 	lw	s2,24(sp)
80001594:	ae300008 	sw	s0,8(s1)
80001598:	ae22000c 	sw	v0,12(s1)
8000159c:	8fb00010 	lw	s0,16(sp)
800015a0:	ae263e80 	sw	a2,16000(s1)
800015a4:	8fb10014 	lw	s1,20(sp)
800015a8:	03e00008 	jr	ra
800015ac:	27bd0020 	addiu	sp,sp,32
800015b0:	8fbf001c 	lw	ra,28(sp)
800015b4:	8fb20018 	lw	s2,24(sp)
800015b8:	8fb10014 	lw	s1,20(sp)
800015bc:	8fb00010 	lw	s0,16(sp)
800015c0:	00001025 	move	v0,zero
800015c4:	03e00008 	jr	ra
800015c8:	27bd0020 	addiu	sp,sp,32
800015cc:	8fb20018 	lw	s2,24(sp)
800015d0:	8fb10014 	lw	s1,20(sp)
800015d4:	02002025 	move	a0,s0
800015d8:	8fb00010 	lw	s0,16(sp)
800015dc:	08000434 	j	800010d0 <push_back>
800015e0:	27bd0020 	addiu	sp,sp,32
	...

800015f0 <checked_malloc>:
800015f0:	27bdffb8 	addiu	sp,sp,-72
800015f4:	afb30030 	sw	s3,48(sp)
800015f8:	afb00024 	sw	s0,36(sp)
800015fc:	afbf0044 	sw	ra,68(sp)
80001600:	afb70040 	sw	s7,64(sp)
80001604:	afb6003c 	sw	s6,60(sp)
80001608:	afb50038 	sw	s5,56(sp)
8000160c:	afb40034 	sw	s4,52(sp)
80001610:	afb2002c 	sw	s2,44(sp)
80001614:	afb10028 	sw	s1,40(sp)
80001618:	0c000535 	jal	800014d4 <kmalloc>
8000161c:	00809825 	move	s3,a0
80001620:	1040004a 	beqz	v0,8000174c <checked_malloc+0x15c>
80001624:	00408025 	move	s0,v0
80001628:	3c028000 	lui	v0,0x8000
8000162c:	02021021 	addu	v0,s0,v0
80001630:	3c032000 	lui	v1,0x2000
80001634:	0043102b 	sltu	v0,v0,v1
80001638:	1040006c 	beqz	v0,800017ec <checked_malloc+0x1fc>
8000163c:	02709021 	addu	s2,s3,s0
80001640:	3c028000 	lui	v0,0x8000
80001644:	02421021 	addu	v0,s2,v0
80001648:	0052182b 	sltu	v1,v0,s2
8000164c:	1060004b 	beqz	v1,8000177c <checked_malloc+0x18c>
80001650:	3c032000 	lui	v1,0x2000
80001654:	0043102b 	sltu	v0,v0,v1
80001658:	10400048 	beqz	v0,8000177c <checked_malloc+0x18c>
8000165c:	32020003 	andi	v0,s0,0x3
80001660:	14400056 	bnez	v0,800017bc <checked_malloc+0x1cc>
80001664:	3c048000 	lui	a0,0x8000
80001668:	3c168000 	lui	s6,0x8000
8000166c:	26d62ac0 	addiu	s6,s6,10944
80001670:	8ed10004 	lw	s1,4(s6)
80001674:	12360035 	beq	s1,s6,8000174c <checked_malloc+0x15c>
80001678:	2627fff8 	addiu	a3,s1,-8
8000167c:	3c178000 	lui	s7,0x8000
80001680:	3c148000 	lui	s4,0x8000
80001684:	26f724e4 	addiu	s7,s7,9444
80001688:	26942588 	addiu	s4,s4,9608
8000168c:	10000015 	b	800016e4 <checked_malloc+0xf4>
80001690:	3c158000 	lui	s5,0x8000
80001694:	50a00004 	beqzl	a1,800016a8 <checked_malloc+0xb8>
80001698:	8e22fff8 	lw	v0,-8(s1)
8000169c:	1040001a 	beqz	v0,80001708 <checked_malloc+0x118>
800016a0:	00000000 	nop
800016a4:	8e22fff8 	lw	v0,-8(s1)
800016a8:	0050282b 	sltu	a1,v0,s0
800016ac:	14a00003 	bnez	a1,800016bc <checked_malloc+0xcc>
800016b0:	0052182b 	sltu	v1,v0,s2
800016b4:	14600014 	bnez	v1,80001708 <checked_malloc+0x118>
800016b8:	00000000 	nop
800016bc:	8e23fffc 	lw	v1,-4(s1)
800016c0:	00431021 	addu	v0,v0,v1
800016c4:	0202182b 	sltu	v1,s0,v0
800016c8:	10600003 	beqz	v1,800016d8 <checked_malloc+0xe8>
800016cc:	0242102b 	sltu	v0,s2,v0
800016d0:	1040000d 	beqz	v0,80001708 <checked_malloc+0x118>
800016d4:	00000000 	nop
800016d8:	8e310004 	lw	s1,4(s1)
800016dc:	1236001b 	beq	s1,s6,8000174c <checked_malloc+0x15c>
800016e0:	2627fff8 	addiu	a3,s1,-8
800016e4:	26220008 	addiu	v0,s1,8
800016e8:	00f0182b 	sltu	v1,a3,s0
800016ec:	0202282b 	sltu	a1,s0,v0
800016f0:	02e02025 	move	a0,s7
800016f4:	00f2302b 	sltu	a2,a3,s2
800016f8:	1460ffe6 	bnez	v1,80001694 <checked_malloc+0xa4>
800016fc:	0242102b 	sltu	v0,s2,v0
80001700:	10c0ffe4 	beqz	a2,80001694 <checked_malloc+0xa4>
80001704:	00000000 	nop
80001708:	0c000327 	jal	80000c9c <puts>
8000170c:	afa70018 	sw	a3,24(sp)
80001710:	8e22fffc 	lw	v0,-4(s1)
80001714:	8fa70018 	lw	a3,24(sp)
80001718:	02802025 	move	a0,s4
8000171c:	afa20014 	sw	v0,20(sp)
80001720:	8e22fff8 	lw	v0,-8(s1)
80001724:	02603025 	move	a2,s3
80001728:	02002825 	move	a1,s0
8000172c:	0c00017e 	jal	800005f8 <printk>
80001730:	afa20010 	sw	v0,16(sp)
80001734:	0c000327 	jal	80000c9c <puts>
80001738:	26a42258 	addiu	a0,s5,8792
8000173c:	00000028 	0x28
80001740:	8e310004 	lw	s1,4(s1)
80001744:	1636ffe7 	bne	s1,s6,800016e4 <checked_malloc+0xf4>
80001748:	2627fff8 	addiu	a3,s1,-8
8000174c:	8fbf0044 	lw	ra,68(sp)
80001750:	8fb70040 	lw	s7,64(sp)
80001754:	8fb6003c 	lw	s6,60(sp)
80001758:	8fb50038 	lw	s5,56(sp)
8000175c:	8fb40034 	lw	s4,52(sp)
80001760:	8fb30030 	lw	s3,48(sp)
80001764:	8fb2002c 	lw	s2,44(sp)
80001768:	8fb10028 	lw	s1,40(sp)
8000176c:	02001025 	move	v0,s0
80001770:	8fb00024 	lw	s0,36(sp)
80001774:	03e00008 	jr	ra
80001778:	27bd0048 	addiu	sp,sp,72
8000177c:	3c048000 	lui	a0,0x8000
80001780:	0c000327 	jal	80000c9c <puts>
80001784:	2484226c 	addiu	a0,a0,8812
80001788:	3c048000 	lui	a0,0x8000
8000178c:	02603025 	move	a2,s3
80001790:	02002825 	move	a1,s0
80001794:	0c00017e 	jal	800005f8 <printk>
80001798:	2484232c 	addiu	a0,a0,9004
8000179c:	3c048000 	lui	a0,0x8000
800017a0:	0c000327 	jal	80000c9c <puts>
800017a4:	24842258 	addiu	a0,a0,8792
800017a8:	00000028 	0x28
800017ac:	32020003 	andi	v0,s0,0x3
800017b0:	5040ffae 	beqzl	v0,8000166c <checked_malloc+0x7c>
800017b4:	3c168000 	lui	s6,0x8000
800017b8:	3c048000 	lui	a0,0x8000
800017bc:	0c000327 	jal	80000c9c <puts>
800017c0:	248423cc 	addiu	a0,a0,9164
800017c4:	3c048000 	lui	a0,0x8000
800017c8:	02002825 	move	a1,s0
800017cc:	0c00017e 	jal	800005f8 <printk>
800017d0:	24842464 	addiu	a0,a0,9316
800017d4:	3c048000 	lui	a0,0x8000
800017d8:	0c000327 	jal	80000c9c <puts>
800017dc:	24842258 	addiu	a0,a0,8792
800017e0:	00000028 	0x28
800017e4:	1000ffa1 	b	8000166c <checked_malloc+0x7c>
800017e8:	3c168000 	lui	s6,0x8000
800017ec:	3c048000 	lui	a0,0x8000
800017f0:	0c000327 	jal	80000c9c <puts>
800017f4:	2484210c 	addiu	a0,a0,8460
800017f8:	3c048000 	lui	a0,0x8000
800017fc:	02002825 	move	a1,s0
80001800:	0c00017e 	jal	800005f8 <printk>
80001804:	248421c4 	addiu	a0,a0,8644
80001808:	3c048000 	lui	a0,0x8000
8000180c:	0c000327 	jal	80000c9c <puts>
80001810:	24842258 	addiu	a0,a0,8792
80001814:	00000028 	0x28
80001818:	1000ff8a 	b	80001644 <checked_malloc+0x54>
8000181c:	3c028000 	lui	v0,0x8000

80001820 <kernel_test>:
80001820:	3c048000 	lui	a0,0x8000
80001824:	27bdff88 	addiu	sp,sp,-120
80001828:	24842628 	addiu	a0,a0,9768
8000182c:	afb7006c 	sw	s7,108(sp)
80001830:	afb50064 	sw	s5,100(sp)
80001834:	afb3005c 	sw	s3,92(sp)
80001838:	afbf0074 	sw	ra,116(sp)
8000183c:	afbe0070 	sw	s8,112(sp)
80001840:	afb60068 	sw	s6,104(sp)
80001844:	afb40060 	sw	s4,96(sp)
80001848:	afb20058 	sw	s2,88(sp)
8000184c:	afb10054 	sw	s1,84(sp)
80001850:	0c000327 	jal	80000c9c <puts>
80001854:	afb00050 	sw	s0,80(sp)
80001858:	3c028000 	lui	v0,0x8000
8000185c:	8c461de4 	lw	a2,7652(v0)
80001860:	afa2004c 	sw	v0,76(sp)
80001864:	3c028000 	lui	v0,0x8000
80001868:	24572ac0 	addiu	s7,v0,10944
8000186c:	3c138000 	lui	s3,0x8000
80001870:	3c158000 	lui	s5,0x8000
80001874:	afa20034 	sw	v0,52(sp)
80001878:	ae602acc 	sw	zero,10956(s3)
8000187c:	aea02ac8 	sw	zero,10952(s5)
80001880:	ac572ac0 	sw	s7,10944(v0)
80001884:	10c000c0 	beqz	a2,80001b88 <kernel_test+0x368>
80001888:	aef70004 	sw	s7,4(s7)
8000188c:	3c028000 	lui	v0,0x8000
80001890:	afa20044 	sw	v0,68(sp)
80001894:	3c028000 	lui	v0,0x8000
80001898:	afa20048 	sw	v0,72(sp)
8000189c:	3c028000 	lui	v0,0x8000
800018a0:	afa20038 	sw	v0,56(sp)
800018a4:	3c028000 	lui	v0,0x8000
800018a8:	24422884 	addiu	v0,v0,10372
800018ac:	afa2003c 	sw	v0,60(sp)
800018b0:	3c028000 	lui	v0,0x8000
800018b4:	3c118000 	lui	s1,0x8000
800018b8:	2442292c 	addiu	v0,v0,10540
800018bc:	26311de8 	addiu	s1,s1,7656
800018c0:	afa00010 	sw	zero,16(sp)
800018c4:	afa20040 	sw	v0,64(sp)
800018c8:	8fa20010 	lw	v0,16(sp)
800018cc:	24420001 	addiu	v0,v0,1
800018d0:	afa20010 	sw	v0,16(sp)
800018d4:	00402825 	move	a1,v0
800018d8:	8fa20044 	lw	v0,68(sp)
800018dc:	0c00017e 	jal	800005f8 <printk>
800018e0:	2444265c 	addiu	a0,v0,9820
800018e4:	8e30000c 	lw	s0,12(s1)
800018e8:	8e060000 	lw	a2,0(s0)
800018ec:	10c0008d 	beqz	a2,80001b24 <kernel_test+0x304>
800018f0:	3c028000 	lui	v0,0x8000
800018f4:	afa2002c 	sw	v0,44(sp)
800018f8:	3c028000 	lui	v0,0x8000
800018fc:	24422848 	addiu	v0,v0,10312
80001900:	0000a025 	move	s4,zero
80001904:	afa20030 	sw	v0,48(sp)
80001908:	8fa20038 	lw	v0,56(sp)
8000190c:	26940001 	addiu	s4,s4,1
80001910:	02802825 	move	a1,s4
80001914:	0c00017e 	jal	800005f8 <printk>
80001918:	24442690 	addiu	a0,v0,9872
8000191c:	8e070004 	lw	a3,4(s0)
80001920:	3c028000 	lui	v0,0x8000
80001924:	00009025 	move	s2,zero
80001928:	3c168000 	lui	s6,0x8000
8000192c:	afa20018 	sw	v0,24(sp)
80001930:	10e00004 	beqz	a3,80001944 <kernel_test+0x124>
80001934:	8ec41de0 	lw	a0,7648(s6)
80001938:	0247102b 	sltu	v0,s2,a3
8000193c:	1040006e 	beqz	v0,80001af8 <kernel_test+0x2d8>
80001940:	8fa2002c 	lw	v0,44(sp)
80001944:	3c08000d 	lui	t0,0xd
80001948:	25085427 	addiu	t0,t0,21543
8000194c:	00880018 	mult	a0,t0
80001950:	00002012 	mflo	a0
80001954:	3c05805a 	lui	a1,0x805a
80001958:	34a5ce55 	ori	a1,a1,0xce55
8000195c:	3c060155 	lui	a2,0x155
80001960:	24c604b1 	addiu	a2,a2,1201
80001964:	8e090010 	lw	t1,16(s0)
80001968:	00850019 	multu	a0,a1
8000196c:	00001810 	mfhi	v1
80001970:	00831023 	subu	v0,a0,v1
80001974:	00021042 	srl	v0,v0,0x1
80001978:	00621821 	addu	v1,v1,v0
8000197c:	00031e02 	srl	v1,v1,0x18
80001980:	00660018 	mult	v1,a2
80001984:	00001812 	mflo	v1
80001988:	00831023 	subu	v0,a0,v1
8000198c:	24420007 	addiu	v0,v0,7
80001990:	3c0351eb 	lui	v1,0x51eb
80001994:	00025202 	srl	t2,v0,0x8
80001998:	3463851f 	ori	v1,v1,0x851f
8000199c:	01430019 	multu	t2,v1
800019a0:	00001810 	mfhi	v1
800019a4:	00031942 	srl	v1,v1,0x5
800019a8:	00032040 	sll	a0,v1,0x1
800019ac:	00832021 	addu	a0,a0,v1
800019b0:	000420c0 	sll	a0,a0,0x3
800019b4:	00831821 	addu	v1,a0,v1
800019b8:	00031880 	sll	v1,v1,0x2
800019bc:	01431823 	subu	v1,t2,v1
800019c0:	0069482b 	sltu	t1,v1,t1
800019c4:	152000be 	bnez	t1,80001cc0 <kernel_test+0x4a0>
800019c8:	aec21de0 	sw	v0,7648(s6)
800019cc:	8e040014 	lw	a0,20(s0)
800019d0:	0064182b 	sltu	v1,v1,a0
800019d4:	54600003 	bnezl	v1,800019e4 <kernel_test+0x1c4>
800019d8:	8ea42ac8 	lw	a0,10952(s5)
800019dc:	1000ffd4 	b	80001930 <kernel_test+0x110>
800019e0:	26520001 	addiu	s2,s2,1
800019e4:	5080002b 	beqzl	a0,80001a94 <kernel_test+0x274>
800019e8:	8e662acc 	lw	a2,10956(s3)
800019ec:	00480018 	mult	v0,t0
800019f0:	00001012 	mflo	v0
800019f4:	8efe0004 	lw	s8,4(s7)
800019f8:	00000000 	nop
800019fc:	00450019 	multu	v0,a1
80001a00:	00002810 	mfhi	a1
80001a04:	00453823 	subu	a3,v0,a1
80001a08:	00073842 	srl	a3,a3,0x1
80001a0c:	00a72821 	addu	a1,a1,a3
80001a10:	00052e02 	srl	a1,a1,0x18
80001a14:	00a60018 	mult	a1,a2
80001a18:	00002812 	mflo	a1
80001a1c:	00451023 	subu	v0,v0,a1
80001a20:	24420007 	addiu	v0,v0,7
80001a24:	00022a02 	srl	a1,v0,0x8
80001a28:	00a4001b 	divu	zero,a1,a0
80001a2c:	00000000 	nop
80001a30:	008001f4 	teq	a0,zero,0x7
80001a34:	aec21de0 	sw	v0,7648(s6)
80001a38:	00002010 	mfhi	a0
80001a3c:	13d7000a 	beq	s8,s7,80001a68 <kernel_test+0x248>
80001a40:	00801025 	move	v0,a0
80001a44:	54800006 	bnezl	a0,80001a60 <kernel_test+0x240>
80001a48:	8fde0004 	lw	s8,4(s8)
80001a4c:	1000005c 	b	80001bc0 <kernel_test+0x3a0>
80001a50:	8e662acc 	lw	a2,10956(s3)
80001a54:	1040005a 	beqz	v0,80001bc0 <kernel_test+0x3a0>
80001a58:	8e662acc 	lw	a2,10956(s3)
80001a5c:	8fde0004 	lw	s8,4(s8)
80001a60:	17d7fffc 	bne	s8,s7,80001a54 <kernel_test+0x234>
80001a64:	2442ffff 	addiu	v0,v0,-1
80001a68:	8fa20018 	lw	v0,24(sp)
80001a6c:	0c000327 	jal	80000c9c <puts>
80001a70:	24442720 	addiu	a0,v0,10016
80001a74:	3c048000 	lui	a0,0x8000
80001a78:	0c00017e 	jal	800005f8 <printk>
80001a7c:	248427b4 	addiu	a0,a0,10164
80001a80:	3c048000 	lui	a0,0x8000
80001a84:	0c000327 	jal	80000c9c <puts>
80001a88:	24842258 	addiu	a0,a0,8792
80001a8c:	00000028 	0x28
80001a90:	8e662acc 	lw	a2,10956(s3)
80001a94:	8fa40030 	lw	a0,48(sp)
80001a98:	0c00017e 	jal	800005f8 <printk>
80001a9c:	02402825 	move	a1,s2
80001aa0:	8e02000c 	lw	v0,12(s0)
80001aa4:	14400014 	bnez	v0,80001af8 <kernel_test+0x2d8>
80001aa8:	8fa2002c 	lw	v0,44(sp)
80001aac:	8e070004 	lw	a3,4(s0)
80001ab0:	1000ff9f 	b	80001930 <kernel_test+0x110>
80001ab4:	26520001 	addiu	s2,s2,1
80001ab8:	0c0004c0 	jal	80001300 <kfree>
80001abc:	01002025 	move	a0,t0
80001ac0:	8e662acc 	lw	a2,10956(s3)
80001ac4:	8e220008 	lw	v0,8(s1)
80001ac8:	0046102b 	sltu	v0,v0,a2
80001acc:	54400001 	bnezl	v0,80001ad4 <kernel_test+0x2b4>
80001ad0:	ae260008 	sw	a2,8(s1)
80001ad4:	3c048000 	lui	a0,0x8000
80001ad8:	03c03825 	move	a3,s8
80001adc:	02402825 	move	a1,s2
80001ae0:	0c00017e 	jal	800005f8 <printk>
80001ae4:	248426a8 	addiu	a0,a0,9896
80001ae8:	8e020008 	lw	v0,8(s0)
80001aec:	5040fff0 	beqzl	v0,80001ab0 <kernel_test+0x290>
80001af0:	8e070004 	lw	a3,4(s0)
80001af4:	8fa2002c 	lw	v0,44(sp)
80001af8:	02402825 	move	a1,s2
80001afc:	00148040 	sll	s0,s4,0x1
80001b00:	0c00017e 	jal	800005f8 <printk>
80001b04:	244429c8 	addiu	a0,v0,10696
80001b08:	8e22000c 	lw	v0,12(s1)
80001b0c:	02148021 	addu	s0,s0,s4
80001b10:	001080c0 	sll	s0,s0,0x3
80001b14:	00508021 	addu	s0,v0,s0
80001b18:	8e060000 	lw	a2,0(s0)
80001b1c:	14c0ff7b 	bnez	a2,8000190c <kernel_test+0xec>
80001b20:	8fa20038 	lw	v0,56(sp)
80001b24:	8fa20048 	lw	v0,72(sp)
80001b28:	8fa50010 	lw	a1,16(sp)
80001b2c:	26310014 	addiu	s1,s1,20
80001b30:	0c00017e 	jal	800005f8 <printk>
80001b34:	24442678 	addiu	a0,v0,9848
80001b38:	8e26fffc 	lw	a2,-4(s1)
80001b3c:	14c0ff63 	bnez	a2,800018cc <kernel_test+0xac>
80001b40:	8fa20010 	lw	v0,16(sp)
80001b44:	8fa2004c 	lw	v0,76(sp)
80001b48:	8c421de4 	lw	v0,7652(v0)
80001b4c:	1040000e 	beqz	v0,80001b88 <kernel_test+0x368>
80001b50:	3c108000 	lui	s0,0x8000
80001b54:	3c128000 	lui	s2,0x8000
80001b58:	26101df0 	addiu	s0,s0,7664
80001b5c:	00008825 	move	s1,zero
80001b60:	265229e4 	addiu	s2,s2,10724
80001b64:	8e060000 	lw	a2,0(s0)
80001b68:	26310001 	addiu	s1,s1,1
80001b6c:	02202825 	move	a1,s1
80001b70:	02402025 	move	a0,s2
80001b74:	0c00017e 	jal	800005f8 <printk>
80001b78:	26100014 	addiu	s0,s0,20
80001b7c:	8e02fff4 	lw	v0,-12(s0)
80001b80:	5440fff9 	bnezl	v0,80001b68 <kernel_test+0x348>
80001b84:	8e060000 	lw	a2,0(s0)
80001b88:	8fbf0074 	lw	ra,116(sp)
80001b8c:	8fbe0070 	lw	s8,112(sp)
80001b90:	8fb7006c 	lw	s7,108(sp)
80001b94:	8fb60068 	lw	s6,104(sp)
80001b98:	8fb50064 	lw	s5,100(sp)
80001b9c:	8fb40060 	lw	s4,96(sp)
80001ba0:	8fb3005c 	lw	s3,92(sp)
80001ba4:	8fb20058 	lw	s2,88(sp)
80001ba8:	8fb10054 	lw	s1,84(sp)
80001bac:	8fb00050 	lw	s0,80(sp)
80001bb0:	3c048000 	lui	a0,0x8000
80001bb4:	24842648 	addiu	a0,a0,9800
80001bb8:	08000327 	j	80000c9c <puts>
80001bbc:	27bd0078 	addiu	sp,sp,120
80001bc0:	8fc7fffc 	lw	a3,-4(s8)
80001bc4:	3c048000 	lui	a0,0x8000
80001bc8:	02402825 	move	a1,s2
80001bcc:	0c00017e 	jal	800005f8 <printk>
80001bd0:	24842a08 	addiu	a0,a0,10760
80001bd4:	8fc5fff8 	lw	a1,-8(s8)
80001bd8:	8fc6fffc 	lw	a2,-4(s8)
80001bdc:	27defff8 	addiu	s8,s8,-8
80001be0:	33c800ff 	andi	t0,s8,0xff
80001be4:	00a61821 	addu	v1,a1,a2
80001be8:	00a3382b 	sltu	a3,a1,v1
80001bec:	10e0001e 	beqz	a3,80001c68 <kernel_test+0x448>
80001bf0:	00a02025 	move	a0,a1
80001bf4:	3c028000 	lui	v0,0x8000
80001bf8:	afa20014 	sw	v0,20(sp)
80001bfc:	90a20000 	lbu	v0,0(a1)
80001c00:	00a83826 	xor	a3,a1,t0
80001c04:	30e700ff 	andi	a3,a3,0xff
80001c08:	8fa4003c 	lw	a0,60(sp)
80001c0c:	10470011 	beq	v0,a3,80001c54 <kernel_test+0x434>
80001c10:	afa70028 	sw	a3,40(sp)
80001c14:	afa80024 	sw	t0,36(sp)
80001c18:	afa30020 	sw	v1,32(sp)
80001c1c:	0c000327 	jal	80000c9c <puts>
80001c20:	afa5001c 	sw	a1,28(sp)
80001c24:	8fa5001c 	lw	a1,28(sp)
80001c28:	8fa70028 	lw	a3,40(sp)
80001c2c:	8fa40040 	lw	a0,64(sp)
80001c30:	0c00017e 	jal	800005f8 <printk>
80001c34:	90a60000 	lbu	a2,0(a1)
80001c38:	8fa20014 	lw	v0,20(sp)
80001c3c:	0c000327 	jal	80000c9c <puts>
80001c40:	24442258 	addiu	a0,v0,8792
80001c44:	00000028 	0x28
80001c48:	8fa80024 	lw	t0,36(sp)
80001c4c:	8fa30020 	lw	v1,32(sp)
80001c50:	8fa5001c 	lw	a1,28(sp)
80001c54:	24a50001 	addiu	a1,a1,1
80001c58:	5465ffe9 	bnel	v1,a1,80001c00 <kernel_test+0x3e0>
80001c5c:	90a20000 	lbu	v0,0(a1)
80001c60:	8fc60004 	lw	a2,4(s8)
80001c64:	8fc40000 	lw	a0,0(s8)
80001c68:	8fc30008 	lw	v1,8(s8)
80001c6c:	50600007 	beqzl	v1,80001c8c <kernel_test+0x46c>
80001c70:	8e632acc 	lw	v1,10956(s3)
80001c74:	8fc5000c 	lw	a1,12(s8)
80001c78:	50a00004 	beqzl	a1,80001c8c <kernel_test+0x46c>
80001c7c:	8e632acc 	lw	v1,10956(s3)
80001c80:	aca30000 	sw	v1,0(a1)
80001c84:	ac650004 	sw	a1,4(v1)
80001c88:	8e632acc 	lw	v1,10956(s3)
80001c8c:	8ea52ac8 	lw	a1,10952(s5)
80001c90:	afc00008 	sw	zero,8(s8)
80001c94:	2463fff0 	addiu	v1,v1,-16
80001c98:	00661823 	subu	v1,v1,a2
80001c9c:	24a5ffff 	addiu	a1,a1,-1
80001ca0:	afc0000c 	sw	zero,12(s8)
80001ca4:	ae632acc 	sw	v1,10956(s3)
80001ca8:	0c0004c0 	jal	80001300 <kfree>
80001cac:	aea52ac8 	sw	a1,10952(s5)
80001cb0:	0c0004c0 	jal	80001300 <kfree>
80001cb4:	03c02025 	move	a0,s8
80001cb8:	1000ff7d 	b	80001ab0 <kernel_test+0x290>
80001cbc:	8e070004 	lw	a3,4(s0)
80001cc0:	00480018 	mult	v0,t0
80001cc4:	00001012 	mflo	v0
80001cc8:	8e230004 	lw	v1,4(s1)
80001ccc:	8e3e0000 	lw	s8,0(s1)
80001cd0:	24040010 	li	a0,16
80001cd4:	24630001 	addiu	v1,v1,1
80001cd8:	007e1823 	subu	v1,v1,s8
80001cdc:	00450019 	multu	v0,a1
80001ce0:	00002810 	mfhi	a1
80001ce4:	00454023 	subu	t0,v0,a1
80001ce8:	00084042 	srl	t0,t0,0x1
80001cec:	00a82821 	addu	a1,a1,t0
80001cf0:	00052e02 	srl	a1,a1,0x18
80001cf4:	00a60018 	mult	a1,a2
80001cf8:	00002812 	mflo	a1
80001cfc:	00451023 	subu	v0,v0,a1
80001d00:	24420007 	addiu	v0,v0,7
80001d04:	00023a02 	srl	a3,v0,0x8
80001d08:	00e3001b 	divu	zero,a3,v1
80001d0c:	00000000 	nop
80001d10:	006001f4 	teq	v1,zero,0x7
80001d14:	aec21de0 	sw	v0,7648(s6)
80001d18:	00001810 	mfhi	v1
80001d1c:	0c00057c 	jal	800015f0 <checked_malloc>
80001d20:	007ef021 	addu	s8,v1,s8
80001d24:	1040ff66 	beqz	v0,80001ac0 <kernel_test+0x2a0>
80001d28:	afa20014 	sw	v0,20(sp)
80001d2c:	0c00057c 	jal	800015f0 <checked_malloc>
80001d30:	03c02025 	move	a0,s8
80001d34:	8fa80014 	lw	t0,20(sp)
80001d38:	1040ff5f 	beqz	v0,80001ab8 <kernel_test+0x298>
80001d3c:	ad020000 	sw	v0,0(t0)
80001d40:	8e662acc 	lw	a2,10956(s3)
80001d44:	8fa70034 	lw	a3,52(sp)
80001d48:	8e230008 	lw	v1,8(s1)
80001d4c:	8ea42ac8 	lw	a0,10952(s5)
80001d50:	8ce52ac0 	lw	a1,10944(a3)
80001d54:	24c60010 	addiu	a2,a2,16
80001d58:	00de3021 	addu	a2,a2,s8
80001d5c:	25020008 	addiu	v0,t0,8
80001d60:	24840001 	addiu	a0,a0,1
80001d64:	0066182b 	sltu	v1,v1,a2
80001d68:	ad1e0004 	sw	s8,4(t0)
80001d6c:	ad17000c 	sw	s7,12(t0)
80001d70:	ad050008 	sw	a1,8(t0)
80001d74:	ace22ac0 	sw	v0,10944(a3)
80001d78:	aca20004 	sw	v0,4(a1)
80001d7c:	ae662acc 	sw	a2,10956(s3)
80001d80:	10600002 	beqz	v1,80001d8c <kernel_test+0x56c>
80001d84:	aea42ac8 	sw	a0,10952(s5)
80001d88:	ae260008 	sw	a2,8(s1)
80001d8c:	3c048000 	lui	a0,0x8000
80001d90:	02402825 	move	a1,s2
80001d94:	248426e8 	addiu	a0,a0,9960
80001d98:	03c03825 	move	a3,s8
80001d9c:	0c00017e 	jal	800005f8 <printk>
80001da0:	afa80014 	sw	t0,20(sp)
80001da4:	8fa80014 	lw	t0,20(sp)
80001da8:	8d030000 	lw	v1,0(t0)
80001dac:	8d040004 	lw	a0,4(t0)
80001db0:	00642021 	addu	a0,v1,a0
80001db4:	0064282b 	sltu	a1,v1,a0
80001db8:	10a0ff3c 	beqz	a1,80001aac <kernel_test+0x28c>
80001dbc:	310800ff 	andi	t0,t0,0xff
80001dc0:	00681026 	xor	v0,v1,t0
80001dc4:	a0620000 	sb	v0,0(v1)
80001dc8:	24630001 	addiu	v1,v1,1
80001dcc:	1483fffd 	bne	a0,v1,80001dc4 <kernel_test+0x5a4>
80001dd0:	00681026 	xor	v0,v1,t0
80001dd4:	1000ff36 	b	80001ab0 <kernel_test+0x290>
80001dd8:	8e070004 	lw	a3,4(s0)
80001ddc:	00000000 	nop

80001de0 <random_seed.1035>:
80001de0:	00bdc0de                                ....

80001de4 <phases>:
80001de4:	80002a3c 00000020 00000020 00000000     <*.. ... .......
80001df4:	80001f08 80002a50 00020000 00020000     ....P*..........
80001e04:	00000000 80001ea8 80002a64 000009c4     ........d*......
80001e14:	000009c4 00000000 80001e48 80002a78     ........H...x*..
80001e24:	00000001 0003d090 00000000 80001e48     ............H...
	...

80001e48 <subphases_default>:
80001e48:	80002a94 00000000 00000001 00000000     .*..............
80001e58:	0000005a 00000064 80002aa0 000000c8     Z...d....*......
	...
80001e70:	00000032 00000064 80002ab0 00000000     2...d....*......
80001e80:	00000000 00000001 0000000a 00000064     ............d...
	...

80001ea8 <subphases_128K>:
80001ea8:	80002a94 00000000 00000001 00000000     .*..............
80001eb8:	00000046 00000064 80002aa0 0000001e     F...d....*......
	...
80001ed0:	00000032 00000064 80002ab0 00000000     2...d....*......
80001ee0:	00000000 00000001 0000001e 00000064     ............d...
	...

80001f08 <subphases_32B>:
80001f08:	80002a94 000000c8 00000001 00000000     .*..............
80001f18:	0000005a 00000064 80002aa0 000000c8     Z...d....*......
	...
80001f30:	00000032 00000064 80002ab0 00000000     2...d....*......
80001f40:	00000000 00000001 0000000a 00000064     ............d...
	...
80001f70:	3c207825 3a3e7325 0000000a 203a7825     %x <%s>:....%x: 
80001f80:	20202020 25202020 00000a61 706d655b            %a...[emp
80001f90:	005d7974 33323130 37363534 62613938     ty].0123456789ab
80001fa0:	66656463 00000000 33323130 37363534     cdef....01234567
80001fb0:	00003938 33323130 37363534 42413938     89..0123456789AB
80001fc0:	46454443 00000000 5f6d654d 7466656c     CDEF....Mem_left
80001fd0:	7525203a 7453200a 20747261 72646461     : %u. Start addr
80001fe0:	3a737365 0a782520 0000000a 70616548     ess: %x.....Heap
80001ff0:	646e6520 7825203a 0000000a 203a4649      end: %x....IF: 
80002000:	20746552 72646461 3a737365 0a702520     Ret address: %p.
80002010:	00000000 74736542 646e6920 69207865     ....Best index i
80002020:	75252073 0000000a 45534c45 6552203a     s %u....ELSE: Re
80002030:	64612074 73657264 25203a73 00000a70     t address: %p...
80002040:	64616548 69207265 64612073 73657264     Header is addres
80002050:	25203a73 6d202c75 203a6d65 000a7525     s: %u, mem: %u..
80002060:	25203a69 61202c75 65726464 203a7373     i: %u, address: 
80002070:	202c7525 3a6d656d 0a752520 00000000     %u, mem: %u.....
80002080:	67676942 20747365 20706167 65646e69     Biggest gap inde
80002090:	73692078 7525203a 0000000a 61746f54     x is: %u....Tota
800020a0:	656d206c 79726f6d 3a736920 2c752520     l memory is: %u,
800020b0:	67696220 74736567 70616720 7525203a      biggest gap: %u
800020c0:	646e6120 646e6520 20676e69 3a6d656d      and ending mem:
800020d0:	0a752520 00000000 206d654d 7466656c      %u.....Mem left
800020e0:	73617720 20752520 20646e61 20776f6e      was %u and now 
800020f0:	25207369 73202c75 20657a69 6f6c6c61     is %u, size allo
80002100:	65746163 25203a64 00000a75 612f0a0a     cated: %u...../a
80002110:	6d2f7366 666d2e73 75632e66 632e696e     fs/ms.mff.cuni.c
80002120:	2f752f7a 6f6b2f6b 766f736c 6f2f6a73     z/u/k/kolsovsj/o
80002130:	652f7973 72657078 6e656d69 676e6974     sy/experimenting
80002140:	65742f35 4d2d6d61 59667461 6b2f6f7a     5/team-MatfYzo/k
80002150:	656e7265 65742f6c 2f737473 70616568     ernel/tests/heap
80002160:	7274732f 2f737365 74736574 333a632e     /stress/test.c:3
80002170:	203a3836 6e72654b 74206c65 20747365     68: Kernel test 
80002180:	65737361 6f697472 6166206e 64656c69     assertion failed
80002190:	5f28203a 6464615f 3d3e2072 38783020     : (__addr >= 0x8
800021a0:	30303030 29303030 20262620 615f5f28     0000000) && (__a
800021b0:	20726464 7830203c 30303041 30303030     ddr < 0xA0000000
800021c0:	00000029 7366612f 2e736d2f 2e66666d     ).../afs/ms.mff.
800021d0:	696e7563 2f7a632e 2f6b2f75 736c6f6b     cuni.cz/u/k/kols
800021e0:	6a73766f 79736f2f 7078652f 6d697265     ovsj/osy/experim
800021f0:	69746e65 2f35676e 6d616574 74614d2d     enting5/team-Mat
80002200:	6f7a5966 72656b2f 2f6c656e 74736574     fYzo/kernel/test
80002210:	65682f73 732f7061 73657274 65742f73     s/heap/stress/te
80002220:	632e7473 3836333a 6164203a 28206174     st.c:368: data (
80002230:	78257830 6f6e2029 6e692074 78305b20     0x%x) not in [0x
80002240:	30303038 30303030 7830202c 30303041     80000000, 0xA000
80002250:	30303030 00000a29 65540a0a 66207473     0000).....Test f
80002260:	656c6961 0a0a2e64 00000000 612f0a0a     ailed........./a
80002270:	6d2f7366 666d2e73 75632e66 632e696e     fs/ms.mff.cuni.c
80002280:	2f752f7a 6f6b2f6b 766f736c 6f2f6a73     z/u/k/kolsovsj/o
80002290:	652f7973 72657078 6e656d69 676e6974     sy/experimenting
800022a0:	65742f35 4d2d6d61 59667461 6b2f6f7a     5/team-MatfYzo/k
800022b0:	656e7265 65742f6c 2f737473 70616568     ernel/tests/heap
800022c0:	7274732f 2f737365 74736574 333a632e     /stress/test.c:3
800022d0:	203a3836 6e72654b 74206c65 20747365     68: Kernel test 
800022e0:	65737361 6f697472 6166206e 64656c69     assertion failed
800022f0:	5f28203a 6464615f 6e655f72 3d3e2064     : (__addr_end >=
80002300:	38783020 30303030 29303030 20262620      0x80000000) && 
80002310:	615f5f28 5f726464 20646e65 7830203c     (__addr_end < 0x
80002320:	30303041 30303030 00000029 7366612f     A0000000).../afs
80002330:	2e736d2f 2e66666d 696e7563 2f7a632e     /ms.mff.cuni.cz/
80002340:	2f6b2f75 736c6f6b 6a73766f 79736f2f     u/k/kolsovsj/osy
80002350:	7078652f 6d697265 69746e65 2f35676e     /experimenting5/
80002360:	6d616574 74614d2d 6f7a5966 72656b2f     team-MatfYzo/ker
80002370:	2f6c656e 74736574 65682f73 732f7061     nel/tests/heap/s
80002380:	73657274 65742f73 632e7473 3836333a     tress/test.c:368
80002390:	6164203a 2b206174 7a697320 30282065     : data + size (0
800023a0:	20782578 6425202b 6e202942 6920746f     x%x + %dB) not i
800023b0:	305b206e 30303878 30303030 30202c30     n [0x80000000, 0
800023c0:	30304178 30303030 000a2930 612f0a0a     xA0000000)..../a
800023d0:	6d2f7366 666d2e73 75632e66 632e696e     fs/ms.mff.cuni.c
800023e0:	2f752f7a 6f6b2f6b 766f736c 6f2f6a73     z/u/k/kolsovsj/o
800023f0:	652f7973 72657078 6e656d69 676e6974     sy/experimenting
80002400:	65742f35 4d2d6d61 59667461 6b2f6f7a     5/team-MatfYzo/k
80002410:	656e7265 65742f6c 2f737473 70616568     ernel/tests/heap
80002420:	7274732f 2f737365 74736574 333a632e     /stress/test.c:3
80002430:	203a3836 6e72654b 74206c65 20747365     68: Kernel test 
80002440:	65737361 6f697472 6166206e 64656c69     assertion failed
80002450:	5f28203a 6464615f 20252072 3d202934     : (__addr % 4) =
80002460:	0030203d 7366612f 2e736d2f 2e66666d     = 0./afs/ms.mff.
80002470:	696e7563 2f7a632e 2f6b2f75 736c6f6b     cuni.cz/u/k/kols
80002480:	6a73766f 79736f2f 7078652f 6d697265     ovsj/osy/experim
80002490:	69746e65 2f35676e 6d616574 74614d2d     enting5/team-Mat
800024a0:	6f7a5966 72656b2f 2f6c656e 74736574     fYzo/kernel/test
800024b0:	65682f73 732f7061 73657274 65742f73     s/heap/stress/te
800024c0:	632e7473 3836333a 6162203a 6c612064     st.c:368: bad al
800024d0:	6d6e6769 20746e65 30206e6f 0a782578     ignment on 0x%x.
800024e0:	00000000 612f0a0a 6d2f7366 666d2e73     ....../afs/ms.mf
800024f0:	75632e66 632e696e 2f752f7a 6f6b2f6b     f.cuni.cz/u/k/ko
80002500:	766f736c 6f2f6a73 652f7973 72657078     lsovsj/osy/exper
80002510:	6e656d69 676e6974 65742f35 4d2d6d61     imenting5/team-M
80002520:	59667461 6b2f6f7a 656e7265 65742f6c     atfYzo/kernel/te
80002530:	2f737473 70616568 7274732f 2f737365     sts/heap/stress/
80002540:	74736574 333a632e 203a3434 6e72654b     test.c:344: Kern
80002550:	74206c65 20747365 65737361 6f697472     el test assertio
80002560:	6166206e 64656c69 6f21203a 6c726576     n failed: !overl
80002570:	6d5f7061 68637461 6f6c6228 202c6b63     ap_match(block, 
80002580:	74616d26 00296863 7366612f 2e736d2f     &match)./afs/ms.
80002590:	2e66666d 696e7563 2f7a632e 2f6b2f75     mff.cuni.cz/u/k/
800025a0:	736c6f6b 6a73766f 79736f2f 7078652f     kolsovsj/osy/exp
800025b0:	6d697265 69746e65 2f35676e 6d616574     erimenting5/team
800025c0:	74614d2d 6f7a5966 72656b2f 2f6c656e     -MatfYzo/kernel/
800025d0:	74736574 65682f73 732f7061 73657274     tests/heap/stres
800025e0:	65742f73 632e7473 3434333a 766f203a     s/test.c:344: ov
800025f0:	616c7265 6f662070 3a646e75 6f6c6220     erlap found: blo
80002600:	3c206b63 202c7025 3e427525 646e6120     ck <%p, %uB> and
80002610:	6f6c6220 25206b63 74612070 70253c20      block %p at <%p
80002620:	7525202c 000a3e42 4b203d3d 454e5245     , %uB>..== KERNE
80002630:	4554204c 68205453 2f706165 65727473     L TEST heap/stre
80002640:	3d207373 0000003d 65540a0a 70207473     ss ==.....Test p
80002650:	65737361 0a0a2e64 00000000 65746e45     assed.......Ente
80002660:	676e6972 61687020 23206573 202e6425     ring phase #%d. 
80002670:	29732528 0000000a 73616850 25232065     (%s)....Phase #%
80002680:	69662064 6873696e 0a2e6465 0000000a     d finished......
80002690:	53202e2e 702d6275 65736168 64252320     .. Sub-phase #%d
800026a0:	73252820 00000a29 20202e2e 6c637963      (%s).....  cycl
800026b0:	64252065 64252820 6c612042 61636f6c     e %d (%dB alloca
800026c0:	29646574 202d2d20 6c696166 74206465     ted) -- failed t
800026d0:	6c61206f 61636f6c 25206574 79622064     o allocate %d by
800026e0:	2e736574 0000000a 20202e2e 6c637963     tes.......  cycl
800026f0:	64252065 64252820 6c612042 61636f6c     e %d (%dB alloca
80002700:	29646574 202d2d20 6f6c6c61 65746163     ted) -- allocate
80002710:	64252064 74796220 0a2e7365 00000000     d %d bytes......
80002720:	612f0a0a 6d2f7366 666d2e73 75632e66     ../afs/ms.mff.cu
80002730:	632e696e 2f752f7a 6f6b2f6b 766f736c     ni.cz/u/k/kolsov
80002740:	6f2f6a73 652f7973 72657078 6e656d69     sj/osy/experimen
80002750:	676e6974 65742f35 4d2d6d61 59667461     ting5/team-MatfY
80002760:	6b2f6f7a 656e7265 65742f6c 2f737473     zo/kernel/tests/
80002770:	70616568 7274732f 2f737365 74736574     heap/stress/test
80002780:	343a632e 203a3739 6e72654b 74206c65     .c:497: Kernel t
80002790:	20747365 65737361 6f697472 6166206e     est assertion fa
800027a0:	64656c69 6c62203a 206b636f 4e203d21     iled: block != N
800027b0:	004c4c55 7366612f 2e736d2f 2e66666d     ULL./afs/ms.mff.
800027c0:	696e7563 2f7a632e 2f6b2f75 736c6f6b     cuni.cz/u/k/kols
800027d0:	6a73766f 79736f2f 7078652f 6d697265     ovsj/osy/experim
800027e0:	69746e65 2f35676e 6d616574 74614d2d     enting5/team-Mat
800027f0:	6f7a5966 72656b2f 2f6c656e 74736574     fYzo/kernel/test
80002800:	65682f73 732f7061 73657274 65742f73     s/heap/stress/te
80002810:	632e7473 3739343a 6f63203a 70757272     st.c:497: corrup
80002820:	20646574 7473696c 20666f20 6f6c6c61     ted list of allo
80002830:	65746163 656d2064 79726f6d 6f6c6220     cated memory blo
80002840:	0a736b63 00000000 20202e2e 6c637963     cks.......  cycl
80002850:	64252065 64252820 6c612042 61636f6c     e %d (%dB alloca
80002860:	29646574 202d2d20 62206f6e 6b636f6c     ted) -- no block
80002870:	206f7420 72206562 61656c65 2e646573      to be released.
80002880:	0000000a 612f0a0a 6d2f7366 666d2e73     ....../afs/ms.mf
80002890:	75632e66 632e696e 2f752f7a 6f6b2f6b     f.cuni.cz/u/k/ko
800028a0:	766f736c 6f2f6a73 652f7973 72657078     lsovsj/osy/exper
800028b0:	6e656d69 676e6974 65742f35 4d2d6d61     imenting5/team-M
800028c0:	59667461 6b2f6f7a 656e7265 65742f6c     atfYzo/kernel/te
800028d0:	2f737473 70616568 7274732f 2f737365     sts/heap/stress/
800028e0:	74736574 343a632e 203a3836 6e72654b     test.c:468: Kern
800028f0:	74206c65 20747365 65737361 6f697472     el test assertio
80002900:	6166206e 64656c69 702a203a 3d20736f     n failed: *pos =
80002910:	7865203d 74636570 765f6465 65756c61     = expected_value
80002920:	6b6c6228 6f70202c 00002973 7366612f     (blk, pos)../afs
80002930:	2e736d2f 2e66666d 696e7563 2f7a632e     /ms.mff.cuni.cz/
80002940:	2f6b2f75 736c6f6b 6a73766f 79736f2f     u/k/kolsovsj/osy
80002950:	7078652f 6d697265 69746e65 2f35676e     /experimenting5/
80002960:	6d616574 74614d2d 6f7a5966 72656b2f     team-MatfYzo/ker
80002970:	2f6c656e 74736574 65682f73 732f7061     nel/tests/heap/s
80002980:	73657274 65742f73 632e7473 3836343a     tress/test.c:468
80002990:	6f63203a 70757272 20646574 746e6f63     : corrupted cont
800029a0:	20746e65 25207461 65282070 63657078     ent at %p (expec
800029b0:	20646574 78257830 6f67202c 78302074     ted 0x%x, got 0x
800029c0:	0a297825 00000000 20202e2e 696e6966     %x).......  fini
800029d0:	64656873 206e6920 63206425 656c6379     shed in %d cycle
800029e0:	00000a73 6f6c6c41 65746163 6e692064     s...Allocated in
800029f0:	61687020 23206573 203a6425 62206425      phase #%d: %d b
80002a00:	73657479 0000000a 20202e2e 6c637963     ytes......  cycl
80002a10:	64252065 64252820 6c612042 61636f6c     e %d (%dB alloca
80002a20:	29646574 202d2d20 656c6572 64657361     ted) -- released
80002a30:	20642520 65747962 000a2e73 20423233      %d bytes...32B 
80002a40:	6f6d656d 62207972 6b636f6c 00000073     memory blocks...
80002a50:	4b383231 656d2042 79726f6d 6f6c6220     128KB memory blo
80002a60:	00736b63 30303532 656d2042 79726f6d     cks.2500B memory
80002a70:	6f6c6220 00736b63 2e204231 3532202e      blocks.1B .. 25
80002a80:	30303030 656d2042 79726f6d 6f6c6220     0000B memory blo
80002a90:	00736b63 6f6c6c41 69746163 00006e6f     cks.Allocation..
80002aa0:	6f6c6c41 65442f63 6f6c6c61 00000063     Alloc/Dealloc...
80002ab0:	6c616544 61636f6c 6e6f6974 00000000     Deallocation....

80002ac0 <mem_blocks>:
	...

80002ac8 <mem_blocks_count>:
80002ac8:	00000000                                ....

80002acc <mem_allocated>:
80002acc:	00000000                                ....

80002ad0 <biggest_free_block>:
80002ad0:	00000000                                ....

80002ad4 <mem_left>:
80002ad4:	00000000                                ....

80002ad8 <heap>:
	...

8000695c <biggest_gap_index>:
8000695c:	00000000                                ....
